
 Start         Length     Name                   Class
 0001:00401000 0006F5C4H .text                   CODE
 0002:00471000 00000BE0H .itext                  ICODE
 0003:00472000 00003C10H .data                   DATA
 0004:00476000 00188C74H .bss                    BSS
 0005:00000000 00000000H .tls                    TLS


Detailed map of segments

 0001:00000000 00009051 C=CODE     S=.text    G=(none)   M=System   ACBP=A9
 0001:00009054 000001A8 C=CODE     S=.text    G=(none)   M=SysInit  ACBP=A9
 0001:000091FC 00000FDD C=CODE     S=.text    G=(none)   M=Windows  ACBP=A9
 0001:0000A1DC 00001547 C=CODE     S=.text    G=(none)   M=FastMM4  ACBP=A9
 0001:0000B724 00000348 C=CODE     S=.text    G=(none)   M=SysConst ACBP=A9
 0001:0000BA6C 000000F8 C=CODE     S=.text    G=(none)   M=RTLConsts ACBP=A9
 0001:0000BB64 000001D0 C=CODE     S=.text    G=(none)   M=Character ACBP=A9
 0001:0000BD34 00000131 C=CODE     S=.text    G=(none)   M=StrUtils ACBP=A9
 0001:0000BE68 0000CCDF C=CODE     S=.text    G=(none)   M=SysUtils ACBP=A9
 0001:00018B48 00000172 C=CODE     S=.text    G=(none)   M=ActiveX  ACBP=A9
 0001:00018CBC 000007D3 C=CODE     S=.text    G=(none)   M=VarUtils ACBP=A9
 0001:00019490 0000818C C=CODE     S=.text    G=(none)   M=Variants ACBP=A9
 0001:0002161C 0000180B C=CODE     S=.text    G=(none)   M=TypInfo  ACBP=A9
 0001:00022E28 000166BC C=CODE     S=.text    G=(none)   M=Classes  ACBP=A9
 0001:000394E4 0000062A C=CODE     S=.text    G=(none)   M=Contnrs  ACBP=A9
 0001:00039B10 000008D3 C=CODE     S=.text    G=(none)   M=SyncObjs ACBP=A9
 0001:0003A3E4 000008AF C=CODE     S=.text    G=(none)   M=JclResources ACBP=A9
 0001:0003AC94 000003DF C=CODE     S=.text    G=(none)   M=JclBase  ACBP=A9
 0001:0003B074 000018BF C=CODE     S=.text    G=(none)   M=JclWin32 ACBP=A9
 0001:0003C934 000001B7 C=CODE     S=.text    G=(none)   M=JclLogic ACBP=A9
 0001:0003CAEC 00000024 C=CODE     S=.text    G=(none)   M=AnsiStrings ACBP=A9
 0001:0003CB10 0000107F C=CODE     S=.text    G=(none)   M=JclStringConversions ACBP=A9
 0001:0003DB90 000029C3 C=CODE     S=.text    G=(none)   M=JclCharsets ACBP=A9
 0001:00040554 000001AF C=CODE     S=.text    G=(none)   M=Jcl8087  ACBP=A9
 0001:00040704 0000022A C=CODE     S=.text    G=(none)   M=JclMath  ACBP=A9
 0001:00040930 00000020 C=CODE     S=.text    G=(none)   M=ComConst ACBP=A9
 0001:00040950 00001143 C=CODE     S=.text    G=(none)   M=ComObj   ACBP=A9
 0001:00041A94 000001BC C=CODE     S=.text    G=(none)   M=Snmp     ACBP=A9
 0001:00041C50 00000403 C=CODE     S=.text    G=(none)   M=TlHelp32 ACBP=A9
 0001:00042054 0000056D C=CODE     S=.text    G=(none)   M=PsAPI    ACBP=A9
 0001:000425C4 000011CF C=CODE     S=.text    G=(none)   M=JclStrings ACBP=A9
 0001:00043794 000005B7 C=CODE     S=.text    G=(none)   M=JclRegistry ACBP=A9
 0001:00043D4C 000000FC C=CODE     S=.text    G=(none)   M=IOUtils  ACBP=A9
 0001:00043E48 0000007F C=CODE     S=.text    G=(none)   M=IniFiles ACBP=A9
 0001:00043EC8 000001B7 C=CODE     S=.text    G=(none)   M=JclIniFiles ACBP=A9
 0001:00044080 000011A8 C=CODE     S=.text    G=(none)   M=JclSysInfo ACBP=A9
 0001:00045228 00002D29 C=CODE     S=.text    G=(none)   M=JclUnicode ACBP=A9
 0001:00047F54 000001BB C=CODE     S=.text    G=(none)   M=JclWideStrings ACBP=A9
 0001:00048110 000001C1 C=CODE     S=.text    G=(none)   M=JclShell ACBP=A9
 0001:000482D4 000001BB C=CODE     S=.text    G=(none)   M=JclSecurity ACBP=A9
 0001:00048490 000002DF C=CODE     S=.text    G=(none)   M=JclDateTime ACBP=A9
 0001:00048770 00003273 C=CODE     S=.text    G=(none)   M=JclFileUtils ACBP=A9
 0001:0004B9E4 000001BB C=CODE     S=.text    G=(none)   M=JclConsole ACBP=A9
 0001:0004BBA0 00000F93 C=CODE     S=.text    G=(none)   M=JclSysUtils ACBP=A9
 0001:0004CB34 000001B3 C=CODE     S=.text    G=(none)   M=JclStreams ACBP=A9
 0001:0004CCE8 00000297 C=CODE     S=.text    G=(none)   M=JclAnsiStrings ACBP=A9
 0001:0004CF80 00000C77 C=CODE     S=.text    G=(none)   M=JclSynch ACBP=A9
 0001:0004DBF8 00001EAC C=CODE     S=.text    G=(none)   M=JclUnitVersioning ACBP=A9
 0001:0004FAA4 0000BF3B C=CODE     S=.text    G=(none)   M=JclPeImage ACBP=A9
 0001:0005B9E0 00004EFB C=CODE     S=.text    G=(none)   M=JclTD32  ACBP=A9
 0001:000608DC 00000573 C=CODE     S=.text    G=(none)   M=JclHookExcept ACBP=A9
 0001:00060E50 00009967 C=CODE     S=.text    G=(none)   M=JclDebug ACBP=A9
 0001:0006A7B8 00004E0C C=CODE     S=.text    G=(none)   M=FastMM_FullDebugMode ACBP=A9
 0002:00000000 000000AA C=ICODE    S=.itext   G=(none)   M=System   ACBP=A9
 0002:000000AC 00000016 C=ICODE    S=.itext   G=(none)   M=Windows  ACBP=A9
 0002:000000C4 00000018 C=ICODE    S=.itext   G=(none)   M=FastMM4  ACBP=A9
 0002:000000DC 000000B4 C=ICODE    S=.itext   G=(none)   M=SysUtils ACBP=A9
 0002:00000190 0000000F C=ICODE    S=.itext   G=(none)   M=VarUtils ACBP=A9
 0002:000001A0 000000AA C=ICODE    S=.itext   G=(none)   M=Variants ACBP=A9
 0002:0000024C 00000008 C=ICODE    S=.itext   G=(none)   M=TypInfo  ACBP=A9
 0002:00000254 0000008D C=ICODE    S=.itext   G=(none)   M=Classes  ACBP=A9
 0002:000002E4 0000000F C=ICODE    S=.itext   G=(none)   M=SyncObjs ACBP=A9
 0002:000002F4 00000019 C=ICODE    S=.itext   G=(none)   M=JclResources ACBP=A9
 0002:00000310 0000001E C=ICODE    S=.itext   G=(none)   M=JclBase  ACBP=A9
 0002:00000330 00000019 C=ICODE    S=.itext   G=(none)   M=JclWin32 ACBP=A9
 0002:0000034C 00000019 C=ICODE    S=.itext   G=(none)   M=JclLogic ACBP=A9
 0002:00000368 00000014 C=ICODE    S=.itext   G=(none)   M=AnsiStrings ACBP=A9
 0002:0000037C 00000019 C=ICODE    S=.itext   G=(none)   M=JclStringConversions ACBP=A9
 0002:00000398 00000019 C=ICODE    S=.itext   G=(none)   M=JclCharsets ACBP=A9
 0002:000003B4 00000019 C=ICODE    S=.itext   G=(none)   M=Jcl8087  ACBP=A9
 0002:000003D0 00000019 C=ICODE    S=.itext   G=(none)   M=JclMath  ACBP=A9
 0002:000003EC 00000055 C=ICODE    S=.itext   G=(none)   M=ComObj   ACBP=A9
 0002:00000444 0000001E C=ICODE    S=.itext   G=(none)   M=Snmp     ACBP=A9
 0002:00000464 00000023 C=ICODE    S=.itext   G=(none)   M=JclStrings ACBP=A9
 0002:00000488 00000023 C=ICODE    S=.itext   G=(none)   M=JclRegistry ACBP=A9
 0002:000004AC 00000460 C=ICODE    S=.itext   G=(none)   M=IOUtils  ACBP=A9
 0002:0000090C 00000008 C=ICODE    S=.itext   G=(none)   M=IniFiles ACBP=A9
 0002:00000914 00000019 C=ICODE    S=.itext   G=(none)   M=JclIniFiles ACBP=A9
 0002:00000930 00000028 C=ICODE    S=.itext   G=(none)   M=JclSysInfo ACBP=A9
 0002:00000958 00000045 C=ICODE    S=.itext   G=(none)   M=JclUnicode ACBP=A9
 0002:000009A0 00000019 C=ICODE    S=.itext   G=(none)   M=JclWideStrings ACBP=A9
 0002:000009BC 00000019 C=ICODE    S=.itext   G=(none)   M=JclShell ACBP=A9
 0002:000009D8 00000019 C=ICODE    S=.itext   G=(none)   M=JclSecurity ACBP=A9
 0002:000009F4 00000019 C=ICODE    S=.itext   G=(none)   M=JclDateTime ACBP=A9
 0002:00000A10 00000019 C=ICODE    S=.itext   G=(none)   M=JclFileUtils ACBP=A9
 0002:00000A2C 00000019 C=ICODE    S=.itext   G=(none)   M=JclConsole ACBP=A9
 0002:00000A48 00000020 C=ICODE    S=.itext   G=(none)   M=JclSysUtils ACBP=A9
 0002:00000A68 00000019 C=ICODE    S=.itext   G=(none)   M=JclStreams ACBP=A9
 0002:00000A84 00000023 C=ICODE    S=.itext   G=(none)   M=JclAnsiStrings ACBP=A9
 0002:00000AA8 00000019 C=ICODE    S=.itext   G=(none)   M=JclSynch ACBP=A9
 0002:00000AC4 00000019 C=ICODE    S=.itext   G=(none)   M=JclUnitVersioning ACBP=A9
 0002:00000AE0 00000019 C=ICODE    S=.itext   G=(none)   M=JclPeImage ACBP=A9
 0002:00000AFC 00000019 C=ICODE    S=.itext   G=(none)   M=JclTD32  ACBP=A9
 0002:00000B18 0000003B C=ICODE    S=.itext   G=(none)   M=JclHookExcept ACBP=A9
 0002:00000B54 00000056 C=ICODE    S=.itext   G=(none)   M=JclDebug ACBP=A9
 0002:00000BAC 00000034 C=ICODE    S=.itext   G=(none)   M=FastMM_FullDebugMode ACBP=A9
 0003:00000000 000009E8 C=DATA     S=.data    G=DGROUP   M=System   ACBP=A9
 0003:000009E8 00000034 C=DATA     S=.data    G=DGROUP   M=SysInit  ACBP=A9
 0003:00000A1C 0000000C C=DATA     S=.data    G=DGROUP   M=Windows  ACBP=A9
 0003:00000A28 000006E4 C=DATA     S=.data    G=DGROUP   M=FastMM4  ACBP=A9
 0003:0000110C 00000100 C=DATA     S=.data    G=DGROUP   M=Character ACBP=A9
 0003:0000120C 000002DC C=DATA     S=.data    G=DGROUP   M=SysUtils ACBP=A9
 0003:000014E8 00000010 C=DATA     S=.data    G=DGROUP   M=ActiveX  ACBP=A9
 0003:000014F8 00000008 C=DATA     S=.data    G=DGROUP   M=VarUtils ACBP=A9
 0003:00001500 00000152 C=DATA     S=.data    G=DGROUP   M=Variants ACBP=A9
 0003:00001654 0000000C C=DATA     S=.data    G=DGROUP   M=TypInfo  ACBP=A9
 0003:00001660 00000042 C=DATA     S=.data    G=DGROUP   M=Classes  ACBP=A9
 0003:000016A4 00000018 C=DATA     S=.data    G=DGROUP   M=JclResources ACBP=A9
 0003:000016BC 00000028 C=DATA     S=.data    G=DGROUP   M=JclBase  ACBP=A9
 0003:000016E4 00000038 C=DATA     S=.data    G=DGROUP   M=JclWin32 ACBP=A9
 0003:0000171C 00000018 C=DATA     S=.data    G=DGROUP   M=JclLogic ACBP=A9
 0003:00001734 00000008 C=DATA     S=.data    G=DGROUP   M=AnsiStrings ACBP=A9
 0003:0000173C 00000024 C=DATA     S=.data    G=DGROUP   M=JclStringConversions ACBP=A9
 0003:00001760 000009A8 C=DATA     S=.data    G=DGROUP   M=JclCharsets ACBP=A9
 0003:00002108 00000018 C=DATA     S=.data    G=DGROUP   M=Jcl8087  ACBP=A9
 0003:00002120 00000020 C=DATA     S=.data    G=DGROUP   M=JclMath  ACBP=A9
 0003:00002140 00000030 C=DATA     S=.data    G=DGROUP   M=ComObj   ACBP=A9
 0003:00002170 00000018 C=DATA     S=.data    G=DGROUP   M=Snmp     ACBP=A9
 0003:00002188 00000024 C=DATA     S=.data    G=DGROUP   M=JclStrings ACBP=A9
 0003:000021AC 000000C0 C=DATA     S=.data    G=DGROUP   M=JclRegistry ACBP=A9
 0003:0000226C 00000010 C=DATA     S=.data    G=DGROUP   M=IOUtils  ACBP=A9
 0003:0000227C 0000000C C=DATA     S=.data    G=DGROUP   M=IniFiles ACBP=A9
 0003:00002288 00000018 C=DATA     S=.data    G=DGROUP   M=JclIniFiles ACBP=A9
 0003:000022A0 00000880 C=DATA     S=.data    G=DGROUP   M=JclSysInfo ACBP=A9
 0003:00002B20 0000075C C=DATA     S=.data    G=DGROUP   M=JclUnicode ACBP=A9
 0003:0000327C 00000018 C=DATA     S=.data    G=DGROUP   M=JclWideStrings ACBP=A9
 0003:00003294 0000001C C=DATA     S=.data    G=DGROUP   M=JclShell ACBP=A9
 0003:000032B0 00000018 C=DATA     S=.data    G=DGROUP   M=JclSecurity ACBP=A9
 0003:000032C8 00000022 C=DATA     S=.data    G=DGROUP   M=JclDateTime ACBP=A9
 0003:000032EC 00000048 C=DATA     S=.data    G=DGROUP   M=JclFileUtils ACBP=A9
 0003:00003334 00000018 C=DATA     S=.data    G=DGROUP   M=JclConsole ACBP=A9
 0003:0000334C 0000002C C=DATA     S=.data    G=DGROUP   M=JclSysUtils ACBP=A9
 0003:00003378 00000018 C=DATA     S=.data    G=DGROUP   M=JclStreams ACBP=A9
 0003:00003390 0000001C C=DATA     S=.data    G=DGROUP   M=JclAnsiStrings ACBP=A9
 0003:000033AC 00000018 C=DATA     S=.data    G=DGROUP   M=JclSynch ACBP=A9
 0003:000033C4 00000025 C=DATA     S=.data    G=DGROUP   M=JclUnitVersioning ACBP=A9
 0003:000033EC 000000B9 C=DATA     S=.data    G=DGROUP   M=JclPeImage ACBP=A9
 0003:000034A8 00000018 C=DATA     S=.data    G=DGROUP   M=JclTD32  ACBP=A9
 0003:000034C0 00000018 C=DATA     S=.data    G=DGROUP   M=JclHookExcept ACBP=A9
 0003:000034D8 000000B4 C=DATA     S=.data    G=DGROUP   M=JclDebug ACBP=A9
 0003:0000358C 00000010 C=DATA     S=.data    G=DGROUP   M=FastMM_FullDebugMode ACBP=A9
 0004:00000000 00002C3C C=BSS      S=.bss     G=DGROUP   M=System   ACBP=A9
 0004:00002C3C 00000010 C=BSS      S=.bss     G=DGROUP   M=SysInit  ACBP=A9
 0004:00002C4C 00000008 C=BSS      S=.bss     G=DGROUP   M=Windows  ACBP=A9
 0004:00002C54 00002237 C=BSS      S=.bss     G=DGROUP   M=FastMM4  ACBP=A9
 0004:00004E8C 0000001C C=BSS      S=.bss     G=DGROUP   M=Character ACBP=A9
 0004:00004EA8 00002240 C=BSS      S=.bss     G=DGROUP   M=SysUtils ACBP=A9
 0004:000070E8 0000005C C=BSS      S=.bss     G=DGROUP   M=VarUtils ACBP=A9
 0004:00007144 00000040 C=BSS      S=.bss     G=DGROUP   M=Variants ACBP=A9
 0004:00007184 00000004 C=BSS      S=.bss     G=DGROUP   M=TypInfo  ACBP=A9
 0004:00007188 00000024 C=BSS      S=.bss     G=DGROUP   M=Classes  ACBP=A9
 0004:000071AC 00000014 C=BSS      S=.bss     G=DGROUP   M=SyncObjs ACBP=A9
 0004:000071C0 00000004 C=BSS      S=.bss     G=DGROUP   M=JclResources ACBP=A9
 0004:000071C4 00000008 C=BSS      S=.bss     G=DGROUP   M=JclBase  ACBP=A9
 0004:000071CC 00000004 C=BSS      S=.bss     G=DGROUP   M=JclWin32 ACBP=A9
 0004:000071D0 00000004 C=BSS      S=.bss     G=DGROUP   M=JclLogic ACBP=A9
 0004:000071D4 00000004 C=BSS      S=.bss     G=DGROUP   M=AnsiStrings ACBP=A9
 0004:000071D8 00000004 C=BSS      S=.bss     G=DGROUP   M=JclStringConversions ACBP=A9
 0004:000071DC 00000004 C=BSS      S=.bss     G=DGROUP   M=JclCharsets ACBP=A9
 0004:000071E0 00000004 C=BSS      S=.bss     G=DGROUP   M=Jcl8087  ACBP=A9
 0004:000071E4 00000004 C=BSS      S=.bss     G=DGROUP   M=JclMath  ACBP=A9
 0004:000071E8 00000011 C=BSS      S=.bss     G=DGROUP   M=ComObj   ACBP=A9
 0004:000071FC 00000004 C=BSS      S=.bss     G=DGROUP   M=Snmp     ACBP=A9
 0004:00007200 00000054 C=BSS      S=.bss     G=DGROUP   M=TlHelp32 ACBP=A9
 0004:00007254 00000060 C=BSS      S=.bss     G=DGROUP   M=PsAPI    ACBP=A9
 0004:000072B4 00080004 C=BSS      S=.bss     G=DGROUP   M=JclStrings ACBP=A9
 0004:000872B8 00000004 C=BSS      S=.bss     G=DGROUP   M=JclRegistry ACBP=A9
 0004:000872BC 00000024 C=BSS      S=.bss     G=DGROUP   M=IOUtils  ACBP=A9
 0004:000872E0 00000004 C=BSS      S=.bss     G=DGROUP   M=IniFiles ACBP=A9
 0004:000872E4 00000004 C=BSS      S=.bss     G=DGROUP   M=JclIniFiles ACBP=A9
 0004:000872E8 00000010 C=BSS      S=.bss     G=DGROUP   M=JclSysInfo ACBP=A9
 0004:000872F8 00001418 C=BSS      S=.bss     G=DGROUP   M=JclUnicode ACBP=A9
 0004:00088710 00000004 C=BSS      S=.bss     G=DGROUP   M=JclWideStrings ACBP=A9
 0004:00088714 00000004 C=BSS      S=.bss     G=DGROUP   M=JclShell ACBP=A9
 0004:00088718 00000004 C=BSS      S=.bss     G=DGROUP   M=JclSecurity ACBP=A9
 0004:0008871C 00000004 C=BSS      S=.bss     G=DGROUP   M=JclDateTime ACBP=A9
 0004:00088720 00000004 C=BSS      S=.bss     G=DGROUP   M=JclFileUtils ACBP=A9
 0004:00088724 00000004 C=BSS      S=.bss     G=DGROUP   M=JclConsole ACBP=A9
 0004:00088728 00000008 C=BSS      S=.bss     G=DGROUP   M=JclSysUtils ACBP=A9
 0004:00088730 00000004 C=BSS      S=.bss     G=DGROUP   M=JclStreams ACBP=A9
 0004:00088734 00000504 C=BSS      S=.bss     G=DGROUP   M=JclAnsiStrings ACBP=A9
 0004:00088C38 00000004 C=BSS      S=.bss     G=DGROUP   M=JclSynch ACBP=A9
 0004:00088C3C 00000008 C=BSS      S=.bss     G=DGROUP   M=JclUnitVersioning ACBP=A9
 0004:00088C44 00000004 C=BSS      S=.bss     G=DGROUP   M=JclPeImage ACBP=A9
 0004:00088C48 00000004 C=BSS      S=.bss     G=DGROUP   M=JclTD32  ACBP=A9
 0004:00088C4C 00000010 C=BSS      S=.bss     G=DGROUP   M=JclHookExcept ACBP=A9
 0004:00088C5C 00000018 C=BSS      S=.bss     G=DGROUP   M=JclDebug ACBP=A9
 0004:00088C74 00100000 C=BSS      S=.bss     G=DGROUP   M=FastMM_FullDebugMode ACBP=A9
 0005:00000000 00000008 C=TLS      S=.tls     G=(none)   M=System   ACBP=A9
 0005:00000008 00000008 C=TLS      S=.tls     G=(none)   M=Classes  ACBP=A9
 0005:00000010 00000008 C=TLS      S=.tls     G=(none)   M=JclHookExcept ACBP=A9


  Address             Publics by Name

 0001:00018C9C       ActiveX.CoInitialize
 0001:00018CA4       ActiveX.CoUninitialize
 0001:00018CB4       ActiveX.GetErrorInfo
 0003:000014E8       ActiveX.GUID_NULL
 0001:00018CAC       ActiveX.SysFreeString
 0004:000071D4       AnsiStrings..1
 0002:00000368       AnsiStrings.AnsiStrings
 0001:0003CAEC       AnsiStrings.Finalization
 0003:00001734       AnsiStrings.FormatErrorStrs
 0004:00004E98       Character.CategoryTable
 0004:00004E90       Character.CatIndexPrimary
 0004:00004E94       Character.CatIndexSecondary
 0004:00004E8C       Character.DataTable
 0003:0000110C       Character.Latin1Categories
 0004:00004EA4       Character.NumericValueTable
 0004:00004E9C       Character.NumIndexPrimary
 0004:00004EA0       Character.NumIndexSecondary
 0001:0000BB64       Character.TCharacter.CheckLetter
 0001:0000BB70       Character.TCharacter.CheckLetterOrDigit
 0001:0000BC8C       Character.TCharacter.Initialize
 0001:0000BC80       Character.TCharacter.IsAscii
 0001:0000BB80       Character.TCharacter.IsLatin1
 0001:0000BB8C       Character.TCharacter.IsLetter
 0001:0000BC18       Character.TCharacter.IsLetterOrDigit
 0004:00007190       Classes..66
 0001:00023340       Classes..EClassNotFound
 0001:000235B0       Classes..EComponentError
 0001:00023048       Classes..EFCreateError
 0001:0002317C       Classes..EFilerError
 0001:00022F4C       Classes..EFileStreamError
 0001:000230E4       Classes..EFOpenError
 0001:000233DC       Classes..EInvalidImage
 0001:00023478       Classes..EListError
 0001:00023214       Classes..EReadError
 0001:00022EB0       Classes..EStreamError
 0001:0002350C       Classes..EStringListError
 0001:000232A8       Classes..EWriteError
 0001:0002A7F0       Classes..TBasicAction
 0001:0002A5D4       Classes..TBasicActionLink
 0001:000271B4       Classes..TClassFinder
 0001:000248DC       Classes..TCollection
 0001:00024738       Classes..TCollectionEnumerator
 0001:000244CC       Classes..TCollectionItem
 0001:00029C8C       Classes..TComponent
 0001:000387F0       Classes..TComponent.FindComponent$ActRec
 0001:000298B4       Classes..TComponentEnumerator
 0001:00026CD8       Classes..TCustomMemoryStream
 0001:00027588       Classes..TFiler
 0001:00026AF4       Classes..TFileStream
 0001:000268DC       Classes..THandleStream
 0001:00023988       Classes..TList
 0001:0002CD34       Classes..TList.Sort$ActRec
 0001:000237B4       Classes..TListEnumerator
 0001:00026F20       Classes..TMemoryStream
 0001:00024354       Classes..TPersistent
 0001:00030CA0       Classes..TPropFixup
 0001:00030ECC       Classes..TPropIntfFixup
 0001:00027FA0       Classes..TReader
 0001:0002ABFC       Classes..TRegGroup
 0001:0002B05C       Classes..TRegGroups
 0001:000262D0       Classes..TStream
 0001:00025C54       Classes..TStringList
 0001:00024FDC       Classes..TStrings
 0001:00024E34       Classes..TStringsEnumerator
 0001:0002409C       Classes..TThreadList
 0001:00028EA8       Classes..TWriter
 0001:000311F8       Classes.AddFinished
 0001:00031230       Classes.AddNotFinished
 0001:00031E9C       Classes.AddSubComponentsToLoaded
 0001:00035438       Classes.AncestorIsValid
 0001:00036E84       Classes.BinToHex
 0003:000016A0       Classes.Blanks
 0001:00031ED8       Classes.CheckSubComponents
 0002:00000254       Classes.Classes
 0001:0002C1EC       Classes.ClassNotFound
 0001:00039294       Classes.CleanupInstFreeList
 0001:0002C514       Classes.CollectionsEqual
 0001:00031FB8       Classes.ComponentCreated
 0003:00001690       Classes.Convert
 0001:00037288       Classes.ConvertBinary
 0001:00037084       Classes.ConvertHeader
 0001:00037F18       Classes.ConvertObject
 0001:00037E64       Classes.ConvertProperty
 0001:00037360       Classes.ConvertValue
 0001:00033ED8       Classes.CopyBinary
 0001:00033E48       Classes.CopyBytes
 0001:00033DFC       Classes.CopyList
 0001:00033D74       Classes.CopySetBody
 0001:00032038       Classes.CreateComponent
 0003:00001660       Classes.CreateVCLComObjectProc
 0001:0002E124       Classes.DoWrite
 0003:00001668       Classes.Dummy32bitResHeader
 0001:00039364       Classes.EFileStreamError.Create
 0001:0002BC90       Classes.Error
 0003:00001664       Classes.FilerSignature
 0001:00039414       Classes.Finalization
 0001:00034B28       Classes.FindAncestor
 0001:0002C2C4       Classes.FindClass
 0001:000321E8       Classes.FindExistingComponent
 0001:0002C444       Classes.FindGlobalComponent
 0004:0000719C       Classes.FindGlobalComponentProcs
 0001:0002C3C8       Classes.FindIdentToInt
 0001:0002C34C       Classes.FindIntToIdent
 0001:000358AC       Classes.FindMethodName
 0001:00031100       Classes.FindNestedComponent
 0001:00033264       Classes.FindUniqueName
 0001:00039214       Classes.FreeIntConstList
 0001:0002C258       Classes.GetClass
 0001:00035FA0       Classes.GetComponentValue
 0001:0002D580       Classes.GetDesigner
 0001:0002C1E0       Classes.GetFieldClassTable
 0001:000392D0       Classes.GetFreeInstBlockItemCount
 0004:000071A0       Classes.GlobalFixupList
 0001:00031278       Classes.GlobalFixupReferences
 0005:0000000C       Classes.GlobalLists
 0005:00000008       Classes.GlobalLoaded
 0004:00007188       Classes.GlobalNameSpace
 0001:000329F8       Classes.HandleException
 0004:000071A4       Classes.InstBlockList
 0004:000071A8       Classes.InstFreeList
 0004:00007194       Classes.IntConstList
 0001:0003562C       Classes.IsDefault
 0001:000354A8       Classes.IsDefaultFloatProp
 0001:00035504       Classes.IsDefaultInt64Prop
 0001:000357D0       Classes.IsDefaultInterfaceProp
 0001:00035904       Classes.IsDefaultMethodProp
 0001:00035684       Classes.IsDefaultObjectProp
 0001:00035450       Classes.IsDefaultOrdProp
 0001:00035A3C       Classes.IsDefaultPropertyValue
 0001:0003555C       Classes.IsDefaultStrProp
 0001:00035704       Classes.IsDefaultValue
 0001:000359A4       Classes.IsDefaultVariantProp
 0001:0002C484       Classes.IsUniqueGlobalComponentName
 0004:0000718C       Classes.IsUniqueGlobalComponentNameProc
 0001:0003928C       Classes.ModuleUnload
 0001:00037054       Classes.NewLine
 0003:00001688       Classes.NilMethod
 0001:0002D624       Classes.NotifyDesigner
 0001:000355EC       Classes.ObjectAncestorMatch
 0001:00037FA8       Classes.ObjectBinaryToText
 0001:00035F88       Classes.OwnedBy
 0001:000315B8       Classes.PropertyNotFound
 0001:00032AC8       Classes.PropPathError
 0001:000315AC       Classes.PropValueError
 0001:0002CBFC       Classes.QuickSort
 0001:0002FE90       Classes.RaiseException
 0001:000343C0       Classes.ReadCustomVariant
 0001:00031594       Classes.ReadError
 0001:00031FD8       Classes.Recover
 0004:00007198       Classes.RegGroups
 0001:00039300       Classes.ReleaseObjectInstanceBlocks
 0001:0003144C       Classes.RemoveFixupReferences
 0001:00031500       Classes.RemoveFixups
 0001:000318FC       Classes.RemoveGlobalFixup
 0001:0002E290       Classes.ReturnAddr
 0001:0002C778       Classes.ReturnAddr
 0001:00032148       Classes.SetCompName
 0001:000315E4       Classes.SetElementValue
 0001:00032E40       Classes.SetInterfaceReference
 0001:00032D5C       Classes.SetIntIdent
 0001:00032DA4       Classes.SetObjectIdent
 0001:00031F50       Classes.SetSubComponentState
 0001:00032DE4       Classes.SetVariantReference
 0001:00033B30       Classes.SkipBinary
 0001:00033B60       Classes.SkipCollection
 0001:00033B04       Classes.SkipList
 0001:0002FC7C       Classes.StringListCompareStrings
 0001:00039188       Classes.TBasicAction.Change
 0001:00039014       Classes.TBasicAction.Create
 0001:00039058       Classes.TBasicAction.Destroy
 0001:000390F4       Classes.TBasicAction.Execute
 0001:000390C4       Classes.TBasicAction.ExecuteTarget
 0001:000390C0       Classes.TBasicAction.HandlesTarget
 0001:000390C8       Classes.TBasicAction.Notification
 0001:0003919C       Classes.TBasicAction.RegisterChanges
 0001:000391E8       Classes.TBasicAction.SetActionComponent
 0001:0003912C       Classes.TBasicAction.SetOnExecute
 0001:000391A8       Classes.TBasicAction.UnRegisterChanges
 0001:00039110       Classes.TBasicAction.Update
 0001:000390F0       Classes.TBasicAction.UpdateTarget
 0001:00038F64       Classes.TBasicActionLink.AssignClient
 0001:00038F9C       Classes.TBasicActionLink.Change
 0001:00038F20       Classes.TBasicActionLink.Create
 0001:00038F68       Classes.TBasicActionLink.Destroy
 0001:00038FB4       Classes.TBasicActionLink.Execute
 0001:00038FFC       Classes.TBasicActionLink.IsOnExecuteLinked
 0001:00038FD0       Classes.TBasicActionLink.SetAction
 0001:00039000       Classes.TBasicActionLink.SetOnExecute
 0001:00039008       Classes.TBasicActionLink.Update
 0001:0002BF4C       Classes.TClassFinder.Create
 0001:0002C08C       Classes.TClassFinder.Destroy
 0001:0002C0BC       Classes.TClassFinder.GetClass
 0001:0002C158       Classes.TClassFinder.GetClasses
 0001:0002D954       Classes.TCollection.Add
 0001:0002DE70       Classes.TCollection.Added
 0001:0002D974       Classes.TCollection.Assign
 0001:0002DA1C       Classes.TCollection.BeginUpdate
 0001:0002DA20       Classes.TCollection.Changed
 0001:0002DA30       Classes.TCollection.Clear
 0001:0002D8BC       Classes.TCollection.Create
 0001:0002DE34       Classes.TCollection.Delete
 0001:0002DE74       Classes.TCollection.Deleting
 0001:0002D908       Classes.TCollection.Destroy
 0001:0002DA98       Classes.TCollection.EndUpdate
 0001:0002DAA4       Classes.TCollection.FindItemID
 0001:0002DAD8       Classes.TCollection.GetAttr
 0001:0002DAD4       Classes.TCollection.GetAttrCount
 0001:0002DAF8       Classes.TCollection.GetCapacity
 0001:0002DB20       Classes.TCollection.GetCount
 0001:0002DAE8       Classes.TCollection.GetEnumerator
 0001:0002DB28       Classes.TCollection.GetItem
 0001:0002DB00       Classes.TCollection.GetItemAttr
 0001:0002DB3C       Classes.TCollection.GetNamePath
 0001:0002DBF0       Classes.TCollection.GetPropName
 0001:0002DD44       Classes.TCollection.Insert
 0001:0002DD60       Classes.TCollection.InsertItem
 0001:0002DE78       Classes.TCollection.Notify
 0001:0002DE64       Classes.TCollection.Owner
 0001:0002DDC8       Classes.TCollection.RemoveItem
 0001:0002DE1C       Classes.TCollection.SetCapacity
 0001:0002DE2C       Classes.TCollection.SetItemName
 0001:0002DE30       Classes.TCollection.Update
 0001:0002D850       Classes.TCollectionEnumerator.Create
 0001:0002D894       Classes.TCollectionEnumerator.GetCurrent
 0001:0002D8A0       Classes.TCollectionEnumerator.MoveNext
 0001:0002D6F0       Classes.TCollectionItem.Changed
 0001:0002D688       Classes.TCollectionItem.Create
 0001:0002D6C0       Classes.TCollectionItem.Destroy
 0001:0002D72C       Classes.TCollectionItem.GetDisplayName
 0001:0002D714       Classes.TCollectionItem.GetIndex
 0001:0002D740       Classes.TCollectionItem.GetNamePath
 0001:0002D7EC       Classes.TCollectionItem.GetOwner
 0001:0002D7F0       Classes.TCollectionItem.SetCollection
 0001:0002D818       Classes.TCollectionItem.SetDisplayName
 0001:0002D820       Classes.TCollectionItem.SetIndex
 0001:00038A18       Classes.TComponent.AddSortedComponent
 0001:00038234       Classes.TComponent.BeforeDestruction
 0001:00038ACC       Classes.TComponent.ChangeName
 0001:000381A0       Classes.TComponent.Create
 0001:000385E0       Classes.TComponent.DefineProperties
 0001:000381EC       Classes.TComponent.Destroy
 0001:00038464       Classes.TComponent.DestroyComponents
 0001:000384D0       Classes.TComponent.Destroying
 0001:00038C28       Classes.TComponent.ExecuteAction
 0001:000388B4       Classes.TComponent.FindComponent
 0001:000388A8       Classes.TComponent.FindComponent$ActRec.$0$Body
 0001:000389A0       Classes.TComponent.FindSortedComponent
 0001:00038280       Classes.TComponent.FreeNotification
 0001:00038D5C       Classes.TComponent.FreeOnRelease
 0001:00038684       Classes.TComponent.GetChildOwner
 0001:00038688       Classes.TComponent.GetChildParent
 0001:0003867C       Classes.TComponent.GetChildren
 0001:00038C8C       Classes.TComponent.GetComObject
 0001:00038B20       Classes.TComponent.GetComponent
 0001:00038B4C       Classes.TComponent.GetComponentCount
 0001:00038B04       Classes.TComponent.GetComponentIndex
 0001:0003868C       Classes.TComponent.GetEnumerator
 0001:0003869C       Classes.TComponent.GetNamePath
 0001:000386B0       Classes.TComponent.GetOwner
 0001:000386B8       Classes.TComponent.GetParentComponent
 0001:00038678       Classes.TComponent.HasParent
 0001:00038314       Classes.TComponent.Insert
 0001:000383C8       Classes.TComponent.InsertComponent
 0001:00038DF4       Classes.TComponent.IntfGetComponent
 0001:00038DF8       Classes.TComponent.IsImplementorOf
 0001:000386D8       Classes.TComponent.Loaded
 0001:00038580       Classes.TComponent.Notification
 0001:000386E4       Classes.TComponent.PaletteCreated
 0001:00038D74       Classes.TComponent.QueryInterface
 0001:000382D4       Classes.TComponent.ReadLeft
 0001:000386E8       Classes.TComponent.ReadState
 0001:000382E8       Classes.TComponent.ReadTop
 0001:00038E78       Classes.TComponent.ReferenceInterface
 0001:00038350       Classes.TComponent.Remove
 0001:0003842C       Classes.TComponent.RemoveComponent
 0001:00038564       Classes.TComponent.RemoveFreeNotification
 0001:00038240       Classes.TComponent.RemoveFreeNotifications
 0001:0003850C       Classes.TComponent.RemoveNotification
 0001:00038D44       Classes.TComponent.SafeCallException
 0001:000386B4       Classes.TComponent.SetChildOrder
 0001:00038B5C       Classes.TComponent.SetComponentIndex
 0001:00038BB0       Classes.TComponent.SetDesigning
 0001:00038A3C       Classes.TComponent.SetName
 0001:000386BC       Classes.TComponent.SetParentComponent
 0001:00038C00       Classes.TComponent.SetReference
 0001:00038C78       Classes.TComponent.SetSubComponent
 0001:00038C50       Classes.TComponent.UpdateAction
 0001:000386CC       Classes.TComponent.Updated
 0001:00038D6C       Classes.TComponent.UpdateRegistry
 0001:000386C0       Classes.TComponent.Updating
 0001:00038780       Classes.TComponent.ValidateContainer
 0001:00038794       Classes.TComponent.ValidateInsert
 0001:000386F8       Classes.TComponent.ValidateRename
 0001:000382FC       Classes.TComponent.WriteLeft
 0001:000386F0       Classes.TComponent.WriteState
 0001:00038308       Classes.TComponent.WriteTop
 0001:00038DB4       Classes.TComponent._AddRef
 0001:00038DD4       Classes.TComponent._Release
 0001:00038134       Classes.TComponentEnumerator.Create
 0001:00038178       Classes.TComponentEnumerator.GetCurrent
 0001:00038184       Classes.TComponentEnumerator.MoveNext
 0001:0003096C       Classes.TCustomMemoryStream.Read
 0001:000309E0       Classes.TCustomMemoryStream.SaveToFile
 0001:000309C8       Classes.TCustomMemoryStream.SaveToStream
 0001:000309A4       Classes.TCustomMemoryStream.Seek
 0001:00030964       Classes.TCustomMemoryStream.SetPointer
 0001:00030C2C       Classes.TFiler.Create
 0001:00027940       Classes.TFiler.DefineBinaryProperty
 0001:00027938       Classes.TFiler.DefineProperty
 0001:00030C74       Classes.TFiler.Destroy
 0001:00027948       Classes.TFiler.FlushBuffer
 0001:00030C9C       Classes.TFiler.SetRoot
 0001:000307BC       Classes.TFileStream.Create
 0001:00030778       Classes.TFileStream.Create
 0001:00030930       Classes.TFileStream.Destroy
 0001:000306B4       Classes.THandleStream.Create
 0001:000306F0       Classes.THandleStream.Read
 0001:00030710       Classes.THandleStream.Seek
 0001:00030750       Classes.THandleStream.SetSize
 0001:0003073C       Classes.THandleStream.SetSize
 0001:00030700       Classes.THandleStream.Write
 0001:0002C6B8       Classes.TList.Add
 0001:0002CEF4       Classes.TList.Assign
 0001:0002C6F8       Classes.TList.Clear
 0001:0002C710       Classes.TList.Delete
 0001:0002C698       Classes.TList.Destroy
 0001:0002C77C       Classes.TList.Error
 0001:0002C7B4       Classes.TList.Error
 0001:0002C808       Classes.TList.Exchange
 0001:0002C858       Classes.TList.Expand
 0001:0002CE98       Classes.TList.Extract
 0001:0002CEA0       Classes.TList.ExtractItem
 0001:0002C870       Classes.TList.First
 0001:0002C878       Classes.TList.Get
 0001:0002C89C       Classes.TList.GetEnumerator
 0001:0002C8AC       Classes.TList.Grow
 0001:0002C8E0       Classes.TList.IndexOf
 0001:0002C904       Classes.TList.IndexOfItem
 0001:0002C930       Classes.TList.Insert
 0001:0002C9A8       Classes.TList.Last
 0001:0002C9CC       Classes.TList.Move
 0001:0002CEF0       Classes.TList.Notify
 0001:0002CAA8       Classes.TList.Pack
 0001:0002CA24       Classes.TList.Put
 0001:0002CA80       Classes.TList.Remove
 0001:0002CA88       Classes.TList.RemoveItem
 0001:0002CB1C       Classes.TList.SetCapacity
 0001:0002CB58       Classes.TList.SetCount
 0001:0002CDF8       Classes.TList.Sort
 0001:0002CDEC       Classes.TList.Sort$ActRec.$0$Body
 0001:0002CE78       Classes.TList.SortList
 0001:0002C630       Classes.TListEnumerator.Create
 0001:0002C674       Classes.TListEnumerator.GetCurrent
 0001:0002C680       Classes.TListEnumerator.MoveNext
 0001:00030A64       Classes.TMemoryStream.Clear
 0001:00030A38       Classes.TMemoryStream.Destroy
 0001:00030AB4       Classes.TMemoryStream.LoadFromFile
 0001:00030A7C       Classes.TMemoryStream.LoadFromStream
 0001:00030B5C       Classes.TMemoryStream.Realloc
 0001:00030B08       Classes.TMemoryStream.SetCapacity
 0001:00030B30       Classes.TMemoryStream.SetSize
 0001:00030BDC       Classes.TMemoryStream.Write
 0001:0002D408       Classes.TPersistent.Assign
 0001:0002D41C       Classes.TPersistent.AssignError
 0001:0002D4D8       Classes.TPersistent.AssignTo
 0001:0002D4E0       Classes.TPersistent.DefineProperties
 0001:0002D3DC       Classes.TPersistent.Destroy
 0001:0002D4E4       Classes.TPersistent.GetNamePath
 0001:0002D57C       Classes.TPersistent.GetOwner
 0001:00030FB4       Classes.TPropFixup.Create
 0001:0003100C       Classes.TPropFixup.MakeGlobalReference
 0001:0003106C       Classes.TPropFixup.ResolveReference
 0001:0003107C       Classes.TPropIntfFixup.ResolveReference
 0001:00031638       Classes.TReader.BeginReferences
 0001:000316A0       Classes.TReader.CheckValue
 0001:00033F30       Classes.TReader.CopyValue
 0001:00031700       Classes.TReader.DefineBinaryProperty
 0001:000316C4       Classes.TReader.DefineProperty
 0001:000315FC       Classes.TReader.Destroy
 0001:00031984       Classes.TReader.DoFixupReferences
 0001:000317E8       Classes.TReader.EndOfList
 0001:000317FC       Classes.TReader.EndReferences
 0001:00031818       Classes.TReader.Error
 0001:0003420C       Classes.TReader.FindAncestorComponent
 0001:00034304       Classes.TReader.FindComponentClass
 0001:000318AC       Classes.TReader.FindMethod
 0001:0003183C       Classes.TReader.FindMethodInstance
 0001:00031AC8       Classes.TReader.FixupReferences
 0001:00031B00       Classes.TReader.FlushBuffer
 0001:00031B24       Classes.TReader.FreeFixups
 0001:00031B60       Classes.TReader.GetFieldClass
 0001:00031BF4       Classes.TReader.GetPosition
 0001:00031C0C       Classes.TReader.NextValue
 0001:00031C1C       Classes.TReader.PropertyError
 0001:00031C30       Classes.TReader.Read
 0001:00031CB8       Classes.TReader.ReadBoolean
 0001:00031C7C       Classes.TReader.ReadBuffer
 0001:00031CCC       Classes.TReader.ReadChar
 0001:00031DC0       Classes.TReader.ReadCollection
 0001:0003228C       Classes.TReader.ReadComponent
 0001:00033600       Classes.TReader.ReadComponents
 0001:000326CC       Classes.TReader.ReadCurrency
 0001:000324CC       Classes.TReader.ReadData
 0001:0003253C       Classes.TReader.ReadDataInner
 0001:0003271C       Classes.TReader.ReadDate
 0001:00032644       Classes.TReader.ReadDouble
 0001:0003260C       Classes.TReader.ReadFloat
 0001:00032760       Classes.TReader.ReadIdent
 0001:00032964       Classes.TReader.ReadInt64
 0001:000328F8       Classes.TReader.ReadInteger
 0001:000329A8       Classes.TReader.ReadListBegin
 0001:000329B0       Classes.TReader.ReadListEnd
 0001:000329B8       Classes.TReader.ReadPrefix
 0001:00032AE4       Classes.TReader.ReadProperty
 0001:00032F00       Classes.TReader.ReadPropValue
 0001:000332CC       Classes.TReader.ReadRootComponent
 0001:000336F0       Classes.TReader.ReadSet
 0001:000337AC       Classes.TReader.ReadSignature
 0001:00032688       Classes.TReader.ReadSingle
 0001:000337D0       Classes.TReader.ReadStr
 0001:00033860       Classes.TReader.ReadString
 0001:00033A88       Classes.TReader.ReadValue
 0001:00034588       Classes.TReader.ReadVariant
 0001:00031D60       Classes.TReader.ReadWideChar
 0001:00033948       Classes.TReader.ReadWideString
 0001:000342C4       Classes.TReader.ReferenceName
 0001:000342DC       Classes.TReader.SetName
 0001:00033A9C       Classes.TReader.SetPosition
 0001:00034378       Classes.TReader.SkipBytes
 0001:00034160       Classes.TReader.SkipComponent
 0001:00034118       Classes.TReader.SkipProperty
 0001:00033ABC       Classes.TReader.SkipSetBody
 0001:00033BC4       Classes.TReader.SkipValue
 0001:0002B538       Classes.TRegGroup.AddClass
 0001:0002B544       Classes.TRegGroup.BestClass
 0001:0002B5A4       Classes.TRegGroup.BestGroup
 0001:0002B614       Classes.TRegGroup.Create
 0001:0002B670       Classes.TRegGroup.Destroy
 0001:0002B6B0       Classes.TRegGroup.GetClass
 0001:0002B700       Classes.TRegGroup.GetClasses
 0001:0002B748       Classes.TRegGroup.IndexOfClass
 0001:0002B7C0       Classes.TRegGroup.InGroup
 0001:0002B804       Classes.TRegGroup.RegisterClass
 0001:0002B8B8       Classes.TRegGroup.RegisterClassAlias
 0001:0002B8F0       Classes.TRegGroup.Registered
 0001:0002B908       Classes.TRegGroup.UnregisterClass
 0001:0002B968       Classes.TRegGroup.UnregisterModuleClasses
 0001:0002BAA8       Classes.TRegGroups.Activate
 0001:0002BAF4       Classes.TRegGroups.AddClass
 0001:0002BB14       Classes.TRegGroups.Create
 0001:0002BB88       Classes.TRegGroups.Destroy
 0001:0002BBE8       Classes.TRegGroups.FindGroup
 0001:0002BC2C       Classes.TRegGroups.GetClass
 0001:0002BC70       Classes.TRegGroups.GroupedWith
 0001:0002BD14       Classes.TRegGroups.GroupWith
 0001:0002BDE8       Classes.TRegGroups.Lock
 0001:0002BDF4       Classes.TRegGroups.RegisterClass
 0001:0002BE0C       Classes.TRegGroups.RegisterClassAlias
 0001:0002BE2C       Classes.TRegGroups.Registered
 0001:0002BE70       Classes.TRegGroups.StartGroup
 0001:0002BEC0       Classes.TRegGroups.Unlock
 0001:0002BECC       Classes.TRegGroups.UnregisterClass
 0001:0002BEFC       Classes.TRegGroups.UnregisterModuleClasses
 0001:00030068       Classes.TStream.CopyFrom
 0001:000304D0       Classes.TStream.FixupResourceHeader
 0001:0002FDA4       Classes.TStream.GetPosition
 0001:0002FDD8       Classes.TStream.GetSize
 0001:000268CC       Classes.TStream.Read
 0001:0002FFF8       Classes.TStream.ReadBuffer
 0001:0003015C       Classes.TStream.ReadComponent
 0001:00030220       Classes.TStream.ReadComponentRes
 0001:000305C8       Classes.TStream.ReadResHeader
 0001:0002FF04       Classes.TStream.Seek
 0001:0002FF88       Classes.TStream.Seek
 0001:0002FDC4       Classes.TStream.SetPosition
 0001:0002FE24       Classes.TStream.SetSize
 0001:0002FE3C       Classes.TStream.SetSize
 0001:0002FE28       Classes.TStream.SetSize64
 0001:000268D4       Classes.TStream.Write
 0001:00030030       Classes.TStream.WriteBuffer
 0001:000301BC       Classes.TStream.WriteComponent
 0001:0003023C       Classes.TStream.WriteComponentRes
 0001:000301C4       Classes.TStream.WriteDescendent
 0001:00030594       Classes.TStream.WriteDescendentRes
 0001:00030244       Classes.TStream.WriteResourceHeader
 0001:0002F68C       Classes.TStringList.Add
 0001:0002F69C       Classes.TStringList.AddObject
 0001:0002F700       Classes.TStringList.Changed
 0001:0002F71C       Classes.TStringList.Changing
 0001:0002F738       Classes.TStringList.Clear
 0001:0002FCE4       Classes.TStringList.CompareStrings
 0001:0002FD00       Classes.TStringList.Create
 0001:0002FD38       Classes.TStringList.Create
 0001:0002FCAC       Classes.TStringList.CustomSort
 0001:0002F7A0       Classes.TStringList.Delete
 0001:0002F608       Classes.TStringList.Destroy
 0001:0002F820       Classes.TStringList.Exchange
 0001:0002F87C       Classes.TStringList.ExchangeItems
 0001:0002F8A0       Classes.TStringList.Find
 0001:0002F924       Classes.TStringList.Get
 0001:0002F954       Classes.TStringList.GetCapacity
 0001:0002F958       Classes.TStringList.GetCount
 0001:0002F95C       Classes.TStringList.GetObject
 0001:0002F980       Classes.TStringList.Grow
 0001:0002F9B4       Classes.TStringList.IndexOf
 0001:0002F9F0       Classes.TStringList.Insert
 0001:0002FA54       Classes.TStringList.InsertItem
 0001:0002FA00       Classes.TStringList.InsertObject
 0001:0002FAD0       Classes.TStringList.Put
 0001:0002FB28       Classes.TStringList.PutObject
 0001:0002FB64       Classes.TStringList.QuickSort
 0001:0002FBFC       Classes.TStringList.SetCapacity
 0001:0002FD7C       Classes.TStringList.SetCaseSensitive
 0001:0002FC3C       Classes.TStringList.SetSorted
 0001:0002FC5C       Classes.TStringList.SetUpdateState
 0001:0002FC9C       Classes.TStringList.Sort
 0001:0002DF44       Classes.TStrings.Add
 0001:0002DF68       Classes.TStrings.AddObject
 0001:0002DF98       Classes.TStrings.AddStrings
 0001:0002DF8C       Classes.TStrings.Append
 0001:0002E050       Classes.TStrings.Assign
 0001:0002E10C       Classes.TStrings.BeginUpdate
 0001:00025B54       Classes.TStrings.Clear
 0001:0002F5C0       Classes.TStrings.CompareStrings
 0001:0002E17C       Classes.TStrings.DefineProperties
 0001:00025B5C       Classes.TStrings.Delete
 0001:0002DF14       Classes.TStrings.Destroy
 0001:0002E1D4       Classes.TStrings.EndUpdate
 0001:0002E1E8       Classes.TStrings.Equals
 0001:0002E294       Classes.TStrings.Error
 0001:0002E2CC       Classes.TStrings.Error
 0001:0002E324       Classes.TStrings.Exchange
 0001:0002E410       Classes.TStrings.GetCapacity
 0001:0002E418       Classes.TStrings.GetCommaText
 0001:0002E4B0       Classes.TStrings.GetDelimitedText
 0001:0002F4AC       Classes.TStrings.GetDelimiter
 0001:0002E720       Classes.TStrings.GetEnumerator
 0001:0002F4C8       Classes.TStrings.GetLineBreak
 0001:0002F5CC       Classes.TStrings.GetNameValueSeparator
 0001:0002E730       Classes.TStrings.GetObject
 0001:0002F504       Classes.TStrings.GetQuoteChar
 0001:0002F520       Classes.TStrings.GetStrictDelimiter
 0001:0002E734       Classes.TStrings.GetText
 0001:0002E788       Classes.TStrings.GetTextStr
 0001:0002E920       Classes.TStrings.GetValue
 0001:0002E9D8       Classes.TStrings.IndexOf
 0001:0002EA64       Classes.TStrings.IndexOfName
 0001:0002EB38       Classes.TStrings.IndexOfObject
 0001:00025B64       Classes.TStrings.Insert
 0001:0002EB6C       Classes.TStrings.InsertObject
 0001:0002EB9C       Classes.TStrings.LoadFromFile
 0001:0002EBF0       Classes.TStrings.LoadFromFile
 0001:0002EC58       Classes.TStrings.LoadFromStream
 0001:0002EC4C       Classes.TStrings.LoadFromStream
 0001:0002ED4C       Classes.TStrings.Move
 0001:0002EDFC       Classes.TStrings.Put
 0001:0002EE2C       Classes.TStrings.PutObject
 0001:0002EE30       Classes.TStrings.ReadData
 0001:0002EEE0       Classes.TStrings.SaveToFile
 0001:0002EEF0       Classes.TStrings.SaveToFile
 0001:0002EF50       Classes.TStrings.SaveToStream
 0001:0002EF60       Classes.TStrings.SaveToStream
 0001:0002F018       Classes.TStrings.SetCapacity
 0001:0002F01C       Classes.TStrings.SetCommaText
 0001:0002F2FC       Classes.TStrings.SetDelimitedText
 0001:0002F538       Classes.TStrings.SetDelimiter
 0001:0002F558       Classes.TStrings.SetLineBreak
 0001:0002F5E8       Classes.TStrings.SetNameValueSeparator
 0001:0002F584       Classes.TStrings.SetQuoteChar
 0001:0002F5A4       Classes.TStrings.SetStrictDelimiter
 0001:0002F044       Classes.TStrings.SetStringsAdapter
 0001:0002F078       Classes.TStrings.SetText
 0001:0002F0C8       Classes.TStrings.SetTextStr
 0001:0002F274       Classes.TStrings.SetUpdateState
 0001:0002F278       Classes.TStrings.WriteData
 0001:0002DE9C       Classes.TStringsEnumerator.Create
 0001:0002DEE0       Classes.TStringsEnumerator.GetCurrent
 0001:0002DEF8       Classes.TStringsEnumerator.MoveNext
 0001:0002D290       Classes.TThreadList.Add
 0001:0002D318       Classes.TThreadList.Clear
 0001:0002D1C0       Classes.TThreadList.Create
 0001:0002D214       Classes.TThreadList.Destroy
 0001:0002D360       Classes.TThreadList.LockList
 0001:0002D374       Classes.TThreadList.Remove
 0001:0002D37C       Classes.TThreadList.RemoveItem
 0001:0002D3D0       Classes.TThreadList.UnlockList
 0001:000347D4       Classes.TWriter.AddAncestor
 0001:00034808       Classes.TWriter.DefineBinaryProperty
 0001:000347E0       Classes.TWriter.DefineProperty
 0001:000347A8       Classes.TWriter.Destroy
 0001:00034844       Classes.TWriter.FindMethodName
 0001:0003488C       Classes.TWriter.FlushBuffer
 0001:00036E60       Classes.TWriter.GetLookupInfo
 0001:00034834       Classes.TWriter.GetPosition
 0001:00034894       Classes.TWriter.SetPosition
 0001:000348D0       Classes.TWriter.SetRoot
 0001:000348E8       Classes.TWriter.Write
 0001:00034934       Classes.TWriter.WriteBinary
 0001:000349D4       Classes.TWriter.WriteBoolean
 0001:000349BC       Classes.TWriter.WriteBuffer
 0001:000349E8       Classes.TWriter.WriteChar
 0001:00034A88       Classes.TWriter.WriteCollection
 0001:00034B78       Classes.TWriter.WriteComponent
 0001:00035120       Classes.TWriter.WriteCurrency
 0001:00034CCC       Classes.TWriter.WriteData
 0001:00035144       Classes.TWriter.WriteDate
 0001:0003508C       Classes.TWriter.WriteDescendent
 0001:000350FC       Classes.TWriter.WriteDouble
 0001:000350B4       Classes.TWriter.WriteFloat
 0001:00035168       Classes.TWriter.WriteIdent
 0001:000352C0       Classes.TWriter.WriteInteger
 0001:0003524C       Classes.TWriter.WriteInteger
 0001:00035318       Classes.TWriter.WriteListBegin
 0001:00035320       Classes.TWriter.WriteListEnd
 0001:00036B24       Classes.TWriter.WriteMinStr
 0001:00035328       Classes.TWriter.WritePrefix
 0001:00035370       Classes.TWriter.WriteProperties
 0001:000364C8       Classes.TWriter.WriteProperty
 0001:000369FC       Classes.TWriter.WritePropName
 0001:00036A50       Classes.TWriter.WriteRootComponent
 0001:00036A58       Classes.TWriter.WriteSignature
 0001:000350D8       Classes.TWriter.WriteSingle
 0001:00036A68       Classes.TWriter.WriteStr
 0001:00036C58       Classes.TWriter.WriteString
 0001:00036D70       Classes.TWriter.WriteUTF8Str
 0001:00036E4C       Classes.TWriter.WriteValue
 0001:0003661C       Classes.TWriter.WriteVariant
 0001:00034A38       Classes.TWriter.WriteWideChar
 0001:00036E44       Classes.TWriter.WriteWideString
 0001:0002C2E4       Classes.UnRegisterModuleClasses
 0001:0002C4A8       Classes.WriteCollection
 0001:00035CF8       Classes.WriteCollectionProp
 0001:00035E94       Classes.WriteFloatProp
 0001:00036EC0       Classes.WriteIndent
 0001:00035ED4       Classes.WriteInt64Prop
 0001:000362F8       Classes.WriteInterfaceProp
 0001:00035C8C       Classes.WriteIntProp
 0001:000363D4       Classes.WriteMethodProp
 0001:000360E4       Classes.WriteObjectProp
 0001:00035D9C       Classes.WriteOrdProp
 0001:00035BA0       Classes.WritePropPath
 0001:00035BF8       Classes.WriteSet
 0001:00036EEC       Classes.WriteStr
 0001:00035F10       Classes.WriteStrProp
 0001:00036F84       Classes.WriteUTF8Str
 0001:00036464       Classes.WriteVariantProp
 0004:000071E8       ComObj..41
 0001:00040950       ComObj..EOleError
 0001:00040B30       ComObj..EOleException
 0001:000409E4       ComObj..EOleSysError
 0001:000417C8       ComObj.ClearExcepInfo
 0003:00002148       ComObj.CoAddRefServerProcess
 0003:00002140       ComObj.CoCreateInstanceEx
 0003:00002158       ComObj.CoInitFlags
 0003:00002144       ComObj.CoInitializeEx
 0004:000071F0       ComObj.ComClassManagerVar
 0002:000003EC       ComObj.ComObj
 0003:0000214C       ComObj.CoReleaseServerProcess
 0003:00002150       ComObj.CoResumeClassObjects
 0003:00002154       ComObj.CoSuspendClassObjects
 0001:000410D8       ComObj.CreateSafeCallErrorExceptionObject
 0001:000411E0       ComObj.DispatchInvoke
 0001:000417BC       ComObj.DispatchInvokeError
 0001:000417D8       ComObj.DispCall
 0001:000418BC       ComObj.DispCallByID
 0001:000416E8       ComObj.DispCallError
 0001:00040E90       ComObj.EOleException.Create
 0001:00040DBC       ComObj.EOleSysError.Create
 0001:00041A14       ComObj.Finalization
 0001:00041550       ComObj.GetIDsOfNames
 0001:00041998       ComObj.InitComObj
 0001:00040F54       ComObj.LoadComExProcs
 0004:000071F8       ComObj.NeedToUninitialize
 0001:00040F44       ComObj.OleCheck
 0001:00040F28       ComObj.OleError
 0004:000071EC       ComObj.OleUninitializing
 0001:00041634       ComObj.RaiseException
 0001:0004151C       ComObj.RaiseNameException
 0001:000411D0       ComObj.SafeCallError
 0004:000071F4       ComObj.SaveInitProc
 0003:0000215C       ComObj.ThreadStrs
 0001:00040D60       ComObj.TrimPunctuation
 0001:0004164C       ComObj.VarDispInvoke
 0001:000394E4       Contnrs..TObjectList
 0001:00039950       Contnrs.TObjectList.Add
 0001:00039994       Contnrs.TObjectList.Create
 0001:00039958       Contnrs.TObjectList.Create
 0001:000399D8       Contnrs.TObjectList.Extract
 0001:000399EC       Contnrs.TObjectList.ExtractItem
 0001:00039A04       Contnrs.TObjectList.FindInstanceOf
 0001:00039A8C       Contnrs.TObjectList.First
 0001:00039A9C       Contnrs.TObjectList.GetItem
 0001:00039AB0       Contnrs.TObjectList.IndexOf
 0001:00039AB8       Contnrs.TObjectList.IndexOfItem
 0001:00039AC0       Contnrs.TObjectList.Insert
 0001:00039AC8       Contnrs.TObjectList.Last
 0001:00039AD4       Contnrs.TObjectList.Notify
 0001:00039B00       Contnrs.TObjectList.Remove
 0001:00039B08       Contnrs.TObjectList.RemoveItem
 0004:00002C58       FastMM4..1
 0001:0000A4F4       FastMM4.AllocateLargeBlock
 0001:0000A43C       FastMM4.AllocNewSequentialFeedMediumPool
 0004:00002C5C       FastMM4.AllocSize2SmallBlockTypeIndX4
 0001:0000A240       FastMM4.AppendModuleFileName
 0001:0000A264       FastMM4.AppendStringToModuleName
 0001:0000A3D4       FastMM4.BinMediumSequentialFeedRemainder
 0001:0000B224       FastMM4.CheckCanInstallMemoryManager
 0003:00000A28       FastMM4.Copyright
 0001:0000B160       FastMM4.FastAllocMem
 0001:0000AC00       FastMM4.FastFreeMem
 0001:0000A748       FastMM4.FastGetMem
 0002:000000C4       FastMM4.FastMM4
 0004:00004E88       FastMM4.FastMMIsInstalled
 0001:0000AEE8       FastMM4.FastReallocMem
 0001:0000B6E4       FastMM4.Finalization
 0001:0000B6C4       FastMM4.FinalizeMemoryManager
 0001:0000A23C       FastMM4.FindFirstSetBit
 0001:0000B194       FastMM4.FreeAllMemory
 0001:0000A558       FastMM4.FreeLargeBlock
 0001:0000AAF4       FastMM4.FreeMediumBlock
 0001:0000A378       FastMM4.InsertMediumBlockIntoBin
 0001:0000B640       FastMM4.InstallMemoryManager
 0004:00004E89       FastMM4.IsMemoryManagerOwner
 0004:00004E48       FastMM4.LargeBlocksCircularList
 0004:00004E44       FastMM4.LargeBlocksLocked
 0004:00002DB8       FastMM4.LastSequentiallyFedMediumBlock
 0001:0000A234       FastMM4.LockCmpxchg
 0001:0000A4B4       FastMM4.LockLargeBlocks
 0001:0000A2E8       FastMM4.LockMediumBlocks
 0004:00002DC4       FastMM4.MediumBlockBinBitmaps
 0004:00002DC0       FastMM4.MediumBlockBinGroupBitmap
 0004:00002E44       FastMM4.MediumBlockBins
 0001:0000ADF8       FastMM4.MediumBlockInPlaceDownsize
 0001:0000ACCC       FastMM4.MediumBlockInPlaceUpsize
 0004:00002DA4       FastMM4.MediumBlockPoolsCircularList
 0004:00002DB4       FastMM4.MediumBlocksLocked
 0004:00002DBC       FastMM4.MediumSequentialFeedBytesLeft
 0004:00004E70       FastMM4.NewMemoryManager
 0001:0000B18C       FastMM4.NoOpRegisterExpectedMemoryLeak
 0001:0000B190       FastMM4.NoOpUnregisterExpectedMemoryLeak
 0004:00004E58       FastMM4.OldMemoryManager
 0001:0000A5FC       FastMM4.ReallocateLargeBlock
 0001:0000A328       FastMM4.RemoveMediumFreeBlock
 0004:00004E8A       FastMM4.ShowingMessageBox
 0001:0000A2B8       FastMM4.ShowMessageBox
 0003:00000A2C       FastMM4.SmallBlockTypes
 0004:00002C54       FastMM4.SuppressMessageBoxes
 0001:0000B6A8       FastMM4.UninstallMemoryManager
 0001:0006AC54       FastMM_FullDebugMode.AppendInfoToString
 0001:0006AB9C       FastMM_FullDebugMode.CardinalToHexBuf
 0002:00000BAC       FastMM_FullDebugMode.FastMM_FullDebugMode
 0001:0006AE90       FastMM_FullDebugMode.Finalization
 0001:0006A7B8       FastMM_FullDebugMode.GetFrameBasedStackTrace
 0001:0006AA68       FastMM_FullDebugMode.GetRawStackTrace
 0003:0000358C       FastMM_FullDebugMode.HexTable
 0001:0006A87C       FastMM_FullDebugMode.IsValidCallSite
 0001:0006ACE8       FastMM_FullDebugMode.LogStackTrace
 0004:00088C74       FastMM_FullDebugMode.MemoryPageAccessMap
 0001:0006A810       FastMM_FullDebugMode.UpdateMemoryPageAccessMap
 0004:000872E0       IniFiles..7
 0001:00043E78       IniFiles.Finalization
 0002:0000090C       IniFiles.IniFiles
 0003:0000227C       IniFiles.TCustomIniFile.SectionNameSeparator
 0003:00002280       IniFiles.Values
 0004:000872DC       IOUtils..1
 0001:00043DB0       IOUtils.Finalization
 0002:00000904       IOUtils.IOUtils
 0004:000872D8       IOUtils.TPath.$ClassInitFlag
 0002:000004AC       IOUtils.TPath.Create@
 0001:00043DA8       IOUtils.TPath.Destroy@
 0004:000872BC       IOUtils.TPath.FAltDirectorySeparatorChar
 0003:0000226C       IOUtils.TPath.FCCurrentDir
 0003:00002274       IOUtils.TPath.FCExtendedPrefix
 0003:00002278       IOUtils.TPath.FCExtendedUNCPrefix
 0003:00002270       IOUtils.TPath.FCParentDir
 0004:000872BE       IOUtils.TPath.FDirectorySeparatorChar
 0004:000872C4       IOUtils.TPath.FExtensionSeparatorChar
 0004:000872D4       IOUtils.TPath.FFileNameWildCardChars
 0004:000872CC       IOUtils.TPath.FInvalidFileNameChars
 0004:000872C8       IOUtils.TPath.FInvalidPathChars
 0004:000872C0       IOUtils.TPath.FPathSeparator
 0004:000872D0       IOUtils.TPath.FPathWildcardChars
 0004:000872C2       IOUtils.TPath.FVolumeSeparatorChar
 0004:000071E0       Jcl8087..1
 0001:000406F0       Jcl8087.Finalization
 0002:000003B4       Jcl8087.Jcl8087
 0003:00002108       Jcl8087.UnitVersioning
 0004:00088C34       JclAnsiStrings..5
 0004:00088734       JclAnsiStrings.AnsiCaseMap
 0003:00003390       JclAnsiStrings.AnsiCaseMapReady
 0004:00088A34       JclAnsiStrings.AnsiCharTypes
 0001:0004CF4C       JclAnsiStrings.CharIsLower
 0001:0004CF5C       JclAnsiStrings.CharIsUpper
 0001:0004CF6C       JclAnsiStrings.Finalization
 0002:00000A84       JclAnsiStrings.JclAnsiStrings
 0001:0004CECC       JclAnsiStrings.LoadCaseMap
 0001:0004CE90       JclAnsiStrings.LoadCharTypes
 0003:00003394       JclAnsiStrings.UnitVersioning
 0004:000071C8       JclBase..5
 0001:0003AC94       JclBase..EJclError
 0001:0003AD28       JclBase..EJclInternalError
 0004:000071C4       JclBase.AnsiReplacementCharacter
 0001:0003B060       JclBase.Finalization
 0002:00000310       JclBase.JclBase
 0001:0003B024       JclBase.LoadAnsiReplacementCharacter
 0003:000016C0       JclBase.MaximumUCS2
 0003:000016C8       JclBase.MaximumUCS4
 0003:000016C4       JclBase.MaximumUTF16
 0003:000016BC       JclBase.UCS4ReplacementCharacter
 0003:000016CC       JclBase.UnitVersioning
 0004:000071DC       JclCharsets..3
 0001:00040504       JclCharsets.Finalization
 0003:00001760       JclCharsets.JclCharsetInfos
 0002:00000398       JclCharsets.JclCharsets
 0003:000020F0       JclCharsets.UnitVersioning
 0004:00088724       JclConsole..01
 0001:0004BB8C       JclConsole.Finalization
 0002:00000A2C       JclConsole.JclConsole
 0003:00003334       JclConsole.UnitVersioning
 0004:0008871C       JclDateTime..2
 0001:00048490       JclDateTime..EJclDateTimeError
 0003:000032E0       JclDateTime.FileTimeStep
 0001:000486F8       JclDateTime.FileTimeToDateTime
 0001:00048724       JclDateTime.FileTimeToLocalDateTime
 0001:0004875C       JclDateTime.Finalization
 0002:000009F4       JclDateTime.JclDateTime
 0001:000486DC       JclDateTime.ResultCheck
 0003:000032C8       JclDateTime.UnitVersioning
 0004:00088C5C       JclDebug..23
 0001:00061258       JclDebug..TJclAbstractMapParser
 0001:0006206C       JclDebug..TJclBinDebugScanner
 0001:00062BE8       JclDebug..TJclDebugInfoBinary
 0001:00062D88       JclDebug..TJclDebugInfoExports
 0001:00062814       JclDebug..TJclDebugInfoList
 0001:00062A64       JclDebug..TJclDebugInfoMap
 0001:000625F4       JclDebug..TJclDebugInfoSource
 0001:00063098       JclDebug..TJclDebugInfoSymbols
 0001:00062F14       JclDebug..TJclDebugInfoTD32
 0001:00063EB0       JclDebug..TJclExceptFrame
 0001:00064140       JclDebug..TJclExceptFrameList
 0001:00068DA8       JclDebug..TJclGlobalModulesList
 0001:00068804       JclDebug..TJclGlobalStackList
 0001:000619B4       JclDebug..TJclMapScanner
 0001:00060E50       JclDebug..TJclModuleInfo
 0001:00060FEC       JclDebug..TJclModuleInfoList
 0001:000632C8       JclDebug..TJclStackBaseList
 0001:000635E4       JclDebug..TJclStackInfoItem
 0001:00063724       JclDebug..TJclStackInfoList
 0001:0006A348       JclDebug.AddIgnoredException
 0001:000693D0       JclDebug.CorrectExceptStackListTop
 0004:00088C60       JclDebug.DebugInfoCritSect
 0003:0000353C       JclDebug.DebugInfoList
 0003:00003544       JclDebug.DebugSymbolsInitialized
 0003:00003548       JclDebug.DebugSymbolsLoadFailed
 0001:00065C08       JclDebug.DecodeNameString
 0001:00069DC8       JclDebug.DoExceptFrameTrace
 0001:00069440       JclDebug.DoExceptionStackTrace
 0001:0006A508       JclDebug.DoExceptNotify
 0001:00064B40       JclDebug.Eof
 0001:0006A660       JclDebug.Finalization
 0001:00064D38       JclDebug.FindParam
 0001:00064470       JclDebug.GetExceptionPointer
 0001:00064468       JclDebug.GetFramePointer
 0001:00069DD4       JclDebug.GetJmpDest
 0001:0006814C       JclDebug.GetLocationInfo
 0001:00068094       JclDebug.GetLocationInfo
 0001:000681F4       JclDebug.GetLocationInfoStr
 0001:0006446C       JclDebug.GetStackPointer
 0001:00064478       JclDebug.GetStackTop
 0004:00088C68       JclDebug.GlobalModulesList
 0004:00088C64       JclDebug.GlobalStackList
 0003:00003584       JclDebug.IgnoredExceptionClassNames
 0003:00003588       JclDebug.IgnoredExceptionClassNamesCritSect
 0003:00003580       JclDebug.IgnoredExceptions
 0003:0000354C       JclDebug.ImageHlpDllHandle
 0003:00003540       JclDebug.InfoSourceClassList
 0001:0006A5C4       JclDebug.IsDebuggerAttached
 0001:00064BBC       JclDebug.IsDecDigit
 0001:0006A378       JclDebug.IsIgnoredException
 0001:00069DA4       JclDebug.JclCreateExceptFrameList
 0001:000694B8       JclDebug.JclCreateStackList
 0002:00000B54       JclDebug.JclDebug
 0003:000034DC       JclDebug.JclDebugInfoSymbolPaths
 0003:000034D8       JclDebug.JclStackTrackingOptions
 0001:0006A594       JclDebug.JclStopExceptionTracking
 0003:00003538       JclDebug.LineNumbersPrefix
 0001:0006668C       JclDebug.NeedDebugInfoList
 0003:00003518       JclDebug.PublicsByNameHeader
 0003:00003528       JclDebug.PublicsByValueHeader
 0001:00064CCC       JclDebug.ReadAddress
 0001:00064C20       JclDebug.ReadDecValue
 0001:00064C58       JclDebug.ReadHexValue
 0001:00064D08       JclDebug.ReadString
 0001:00064BDC       JclDebug.ReadTextLine
 0004:00088C70       JclDebug.RegisteredThreadList
 0001:00065460       JclDebug.Search_MapLineNumber
 0001:00065720       JclDebug.Search_MapProcName
 0003:00003508       JclDebug.SegmentsHeader
 0001:00065B48       JclDebug.SimpleCryptString
 0001:00064B84       JclDebug.SkipEndLine
 0001:00064B54       JclDebug.SkipWhiteSpace
 0001:000658B0       JclDebug.Sort_MapLineNumber
 0001:000658B8       JclDebug.Sort_MapProcName
 0001:000658C0       JclDebug.Sort_MapSegment
 0001:00067354       JclDebug.StrRemoveEmptyPaths
 0003:00003560       JclDebug.SymCleanupFunc
 0003:00003578       JclDebug.SymGetLineFromAddrAFunc
 0003:0000357C       JclDebug.SymGetLineFromAddrWFunc
 0003:0000356C       JclDebug.SymGetModuleInfoAFunc
 0003:00003570       JclDebug.SymGetModuleInfoWFunc
 0003:00003558       JclDebug.SymGetOptionsFunc
 0003:00003564       JclDebug.SymGetSymFromAddrAFunc
 0003:00003568       JclDebug.SymGetSymFromAddrWFunc
 0003:00003550       JclDebug.SymInitializeAFunc
 0003:00003554       JclDebug.SymInitializeWFunc
 0003:00003574       JclDebug.SymLoadModuleFunc
 0003:0000355C       JclDebug.SymSetOptionsFunc
 0001:00064D58       JclDebug.SyncToHeader
 0001:00064E34       JclDebug.SyncToPrefix
 0003:000034F8       JclDebug.TableHeader
 0001:000646CC       JclDebug.TJclAbstractMapParser.Create
 0001:00064730       JclDebug.TJclAbstractMapParser.Create
 0001:00064770       JclDebug.TJclAbstractMapParser.Destroy
 0001:000647A8       JclDebug.TJclAbstractMapParser.GetLinkerBugUnitName
 0001:000647C0       JclDebug.TJclAbstractMapParser.MapStringToFileName
 0001:00064824       JclDebug.TJclAbstractMapParser.MapStringToModuleName
 0001:000648F8       JclDebug.TJclAbstractMapParser.MapStringToStr
 0001:00064F50       JclDebug.TJclAbstractMapParser.Parse
 0001:00065E44       JclDebug.TJclBinDebugScanner.CacheLineNumbers
 0001:00065F18       JclDebug.TJclBinDebugScanner.CacheProcNames
 0001:00066020       JclDebug.TJclBinDebugScanner.CheckFormat
 0001:00065DF4       JclDebug.TJclBinDebugScanner.Create
 0001:000660BC       JclDebug.TJclBinDebugScanner.DataToStr
 0001:000660EC       JclDebug.TJclBinDebugScanner.GetModuleName
 0001:00066108       JclDebug.TJclBinDebugScanner.IsModuleNameValid
 0001:00066194       JclDebug.TJclBinDebugScanner.LineNumberFromAddr
 0001:00066188       JclDebug.TJclBinDebugScanner.LineNumberFromAddr
 0001:0006629C       JclDebug.TJclBinDebugScanner.MakePtr
 0001:000662A8       JclDebug.TJclBinDebugScanner.ModuleNameFromAddr
 0001:0006631C       JclDebug.TJclBinDebugScanner.ModuleStartFromAddr
 0001:0006637C       JclDebug.TJclBinDebugScanner.ProcNameFromAddr
 0001:0006639C       JclDebug.TJclBinDebugScanner.ProcNameFromAddr
 0001:00066554       JclDebug.TJclBinDebugScanner.ReadValue
 0001:0006658C       JclDebug.TJclBinDebugScanner.SourceNameFromAddr
 0001:00066AD0       JclDebug.TJclDebugInfoBinary.Destroy
 0001:00066B18       JclDebug.TJclDebugInfoBinary.GetLocationInfo
 0001:00066C34       JclDebug.TJclDebugInfoBinary.InitializeSource
 0001:00066D74       JclDebug.TJclDebugInfoExports.Destroy
 0001:00066E8C       JclDebug.TJclDebugInfoExports.GetLocationInfo
 0001:00067144       JclDebug.TJclDebugInfoExports.InitializeSource
 0001:00066DAC       JclDebug.TJclDebugInfoExports.IsAddressInThisExportedFunction
 0001:000666A8       JclDebug.TJclDebugInfoList.CreateDebugInfo
 0001:00066748       JclDebug.TJclDebugInfoList.GetItemFromModule
 0001:000667A8       JclDebug.TJclDebugInfoList.GetItems
 0001:000667BC       JclDebug.TJclDebugInfoList.GetLocationInfo
 0001:0006682C       JclDebug.TJclDebugInfoList.NeedInfoSourceClassList
 0001:00066898       JclDebug.TJclDebugInfoList.RegisterDebugInfoSource
 0001:000668B0       JclDebug.TJclDebugInfoList.RegisterDebugInfoSourceFirst
 0001:000668C8       JclDebug.TJclDebugInfoList.UnRegisterDebugInfoSource
 0001:000668E0       JclDebug.TJclDebugInfoMap.Destroy
 0001:00066918       JclDebug.TJclDebugInfoMap.GetLocationInfo
 0001:00066A34       JclDebug.TJclDebugInfoMap.InitializeSource
 0001:00066648       JclDebug.TJclDebugInfoSource.Create
 0001:0006666C       JclDebug.TJclDebugInfoSource.GetFileName
 0001:000627E8       JclDebug.TJclDebugInfoSource.GetLocationInfo
 0001:000627E0       JclDebug.TJclDebugInfoSource.InitializeSource
 0001:00066680       JclDebug.TJclDebugInfoSource.VAFromAddr
 0001:00067724       JclDebug.TJclDebugInfoSymbols.CleanupDebugSymbols
 0001:00067754       JclDebug.TJclDebugInfoSymbols.GetLocationInfo
 0001:00067450       JclDebug.TJclDebugInfoSymbols.InitializeDebugSymbols
 0001:00067AB0       JclDebug.TJclDebugInfoSymbols.InitializeSource
 0001:00067D04       JclDebug.TJclDebugInfoSymbols.LoadDebugFunctions
 0001:00068018       JclDebug.TJclDebugInfoSymbols.UnloadDebugFunctions
 0001:0006718C       JclDebug.TJclDebugInfoTD32.Destroy
 0001:000671C4       JclDebug.TJclDebugInfoTD32.GetLocationInfo
 0001:000672F8       JclDebug.TJclDebugInfoTD32.InitializeSource
 0001:00069E78       JclDebug.TJclExceptFrame.AnalyseExceptFrame
 0001:00069E20       JclDebug.TJclExceptFrame.Create
 0001:0006A164       JclDebug.TJclExceptFrame.HandlerInfo
 0001:0006A158       JclDebug.TJclExceptFrame.Handles
 0001:0006A29C       JclDebug.TJclExceptFrameList.AddFrame
 0001:0006A258       JclDebug.TJclExceptFrameList.Create
 0001:0006A2C4       JclDebug.TJclExceptFrameList.TraceExceptionFrames
 0001:000690C4       JclDebug.TJclGlobalModulesList.AddModule
 0001:00069030       JclDebug.TJclGlobalModulesList.Create
 0001:00069164       JclDebug.TJclGlobalModulesList.CreateModulesList
 0001:0006906C       JclDebug.TJclGlobalModulesList.Destroy
 0001:000692E4       JclDebug.TJclGlobalModulesList.FreeModulesList
 0001:0006935C       JclDebug.TJclGlobalModulesList.ValidateAddress
 0001:00068ACC       JclDebug.TJclGlobalStackList.AddObject
 0001:00068B60       JclDebug.TJclGlobalStackList.Clear
 0001:00068A40       JclDebug.TJclGlobalStackList.Destroy
 0001:00068BCC       JclDebug.TJclGlobalStackList.FindObject
 0001:00068C88       JclDebug.TJclGlobalStackList.ItemDestroyed
 0001:00068CE0       JclDebug.TJclGlobalStackList.LockThreadID
 0001:00068D54       JclDebug.TJclGlobalStackList.UnlockThreadID
 0001:000652FC       JclDebug.TJclMapScanner.ClassTableItem
 0001:000651DC       JclDebug.TJclMapScanner.Create
 0001:00065454       JclDebug.TJclMapScanner.LineNumberFromAddr
 0001:00065468       JclDebug.TJclMapScanner.LineNumberFromAddr
 0001:000654D8       JclDebug.TJclMapScanner.LineNumbersItem
 0001:00065658       JclDebug.TJclMapScanner.LineNumberUnitItem
 0001:00065224       JclDebug.TJclMapScanner.MAPAddrToVA
 0001:0006525C       JclDebug.TJclMapScanner.MapStringCacheToFileName
 0001:0006528C       JclDebug.TJclMapScanner.MapStringCacheToModuleName
 0001:000652BC       JclDebug.TJclMapScanner.MapStringCacheToStr
 0001:0006565C       JclDebug.TJclMapScanner.ModuleNameFromAddr
 0001:000656B8       JclDebug.TJclMapScanner.ModuleStartFromAddr
 0001:00065700       JclDebug.TJclMapScanner.ProcNameFromAddr
 0001:00065728       JclDebug.TJclMapScanner.ProcNameFromAddr
 0001:000657B4       JclDebug.TJclMapScanner.PublicsByNameItem
 0001:000657B8       JclDebug.TJclMapScanner.PublicsByValueItem
 0001:000658C8       JclDebug.TJclMapScanner.Scan
 0001:0006597C       JclDebug.TJclMapScanner.SegmentItem
 0001:00065A98       JclDebug.TJclMapScanner.SourceNameFromAddr
 0001:000644DC       JclDebug.TJclModuleInfoList.AddModule
 0001:00064510       JclDebug.TJclModuleInfoList.BuildModulesList
 0001:00064480       JclDebug.TJclModuleInfoList.Create
 0001:000645C0       JclDebug.TJclModuleInfoList.CreateItemForAddress
 0001:0006462C       JclDebug.TJclModuleInfoList.GetItems
 0001:00064640       JclDebug.TJclModuleInfoList.GetModuleFromAddress
 0001:0006469C       JclDebug.TJclModuleInfoList.IsSystemModuleAddress
 0001:000646B4       JclDebug.TJclModuleInfoList.IsValidModuleAddress
 0001:00068764       JclDebug.TJclStackBaseList.Create
 0001:000687AC       JclDebug.TJclStackBaseList.Destroy
 0001:000694F0       JclDebug.TJclStackInfoItem.GetCallerAddr
 0001:000694F4       JclDebug.TJclStackInfoItem.GetLogicalAddress
 0001:000697C0       JclDebug.TJclStackInfoList.AddToStrings
 0001:000697B8       JclDebug.TJclStackInfoList.CorrectOnAccess
 0001:0006955C       JclDebug.TJclStackInfoList.Create
 0001:000695A8       JclDebug.TJclStackInfoList.Create
 0001:00069510       JclDebug.TJclStackInfoList.Create
 0001:000695F8       JclDebug.TJclStackInfoList.Create
 0001:00069B48       JclDebug.TJclStackInfoList.DelayStoreStack
 0001:000696D0       JclDebug.TJclStackInfoList.Destroy
 0001:00069714       JclDebug.TJclStackInfoList.ForceStackTracing
 0001:000697A4       JclDebug.TJclStackInfoList.GetCount
 0001:00069890       JclDebug.TJclStackInfoList.GetItems
 0001:000698B0       JclDebug.TJclStackInfoList.NextStackFrame
 0001:000699D0       JclDebug.TJclStackInfoList.StoreToList
 0001:00069A14       JclDebug.TJclStackInfoList.TraceStackFrames
 0001:00069A88       JclDebug.TJclStackInfoList.TraceStackRaw
 0001:00069BD0       JclDebug.TJclStackInfoList.ValidCallSite
 0001:00069D94       JclDebug.TJclStackInfoList.ValidStackAddr
 0004:00088C6C       JclDebug.TrackingActiveCount
 0003:000034E0       JclDebug.UnitVersioning
 0001:000693B8       JclDebug.ValidCodeAddr
 0004:00088720       JclFileUtils..12
 0001:0004957C       JclFileUtils..EJclFileMappingError
 0001:0004962C       JclFileUtils..EJclFileMappingViewError
 0001:00048858       JclFileUtils..EJclFileVersionInfoError
 0001:000493B4       JclFileUtils..TJclFileMappingStream
 0001:00048990       JclFileUtils..TJclFileVersionInfo
 0001:00049C78       JclFileUtils.FileExists
 0001:0004B994       JclFileUtils.Finalization
 0001:0004A880       JclFileUtils.FixKeyValue
 0001:0004A2C4       JclFileUtils.FormatVersionString
 0001:0004A788       JclFileUtils.GetHeader
 0001:00049C9C       JclFileUtils.GetModulePath
 0002:00000A10       JclFileUtils.JclFileUtils
 0001:0004A77C       JclFileUtils.Padding
 0001:00049AA8       JclFileUtils.PathAddSeparator
 0001:00049B70       JclFileUtils.PathExtractFileNameNoExt
 0001:00049BC0       JclFileUtils.PathRemoveExtension
 0001:0004A91C       JclFileUtils.ProcessStringInfo
 0001:0004AC6C       JclFileUtils.ProcessVarInfo
 0001:000499E8       JclFileUtils.TJclFileMappingStream.Close
 0001:00049888       JclFileUtils.TJclFileMappingStream.Create
 0001:000499BC       JclFileUtils.TJclFileMappingStream.Destroy
 0001:00049A2C       JclFileUtils.TJclFileMappingStream.Write
 0001:0004A3EC       JclFileUtils.TJclFileVersionInfo.Attach
 0001:0004A6AC       JclFileUtils.TJclFileVersionInfo.CheckLanguageIndex
 0001:0004A450       JclFileUtils.TJclFileVersionInfo.Create
 0001:0004A524       JclFileUtils.TJclFileVersionInfo.Create
 0001:0004A59C       JclFileUtils.TJclFileVersionInfo.Create
 0001:0004A6DC       JclFileUtils.TJclFileVersionInfo.CreateItemsForLanguage
 0001:0004A648       JclFileUtils.TJclFileVersionInfo.Destroy
 0001:0004AD14       JclFileUtils.TJclFileVersionInfo.ExtractData
 0001:0004B01C       JclFileUtils.TJclFileVersionInfo.ExtractFlags
 0001:0004A690       JclFileUtils.TJclFileVersionInfo.FileHasVersionInfo
 0001:0004B084       JclFileUtils.TJclFileVersionInfo.GetBinFileVersion
 0001:0004B110       JclFileUtils.TJclFileVersionInfo.GetBinProductVersion
 0001:0004B19C       JclFileUtils.TJclFileVersionInfo.GetCustomFieldValue
 0001:0004B208       JclFileUtils.TJclFileVersionInfo.GetFileOS
 0001:0004B210       JclFileUtils.TJclFileVersionInfo.GetFileSubType
 0001:0004B218       JclFileUtils.TJclFileVersionInfo.GetFileType
 0001:0004B220       JclFileUtils.TJclFileVersionInfo.GetFileVersionBuild
 0001:0004B2E4       JclFileUtils.TJclFileVersionInfo.GetFileVersionMajor
 0001:0004B388       JclFileUtils.TJclFileVersionInfo.GetFileVersionMinor
 0001:0004B444       JclFileUtils.TJclFileVersionInfo.GetFileVersionRelease
 0001:0004B510       JclFileUtils.TJclFileVersionInfo.GetFixedInfo
 0001:0004B524       JclFileUtils.TJclFileVersionInfo.GetItems
 0001:0004B528       JclFileUtils.TJclFileVersionInfo.GetLanguageCount
 0001:0004B540       JclFileUtils.TJclFileVersionInfo.GetProductVersionBuild
 0001:0004B604       JclFileUtils.TJclFileVersionInfo.GetProductVersionMajor
 0001:0004B6A8       JclFileUtils.TJclFileVersionInfo.GetProductVersionMinor
 0001:0004B764       JclFileUtils.TJclFileVersionInfo.GetProductVersionRelease
 0001:0004B534       JclFileUtils.TJclFileVersionInfo.GetTranslationCount
 0001:0004B830       JclFileUtils.TJclFileVersionInfo.GetVersionKeyValue
 0001:0004B854       JclFileUtils.TJclFileVersionInfo.SetLanguageIndex
 0001:0004B878       JclFileUtils.TJclFileVersionInfo.TranslationMatchesLanguages
 0001:0004B900       JclFileUtils.TJclFileVersionInfo.VersionLanguageId
 0001:0004B960       JclFileUtils.TJclFileVersionInfo.VersionLanguageName
 0003:000032EC       JclFileUtils.UnitVersioning
 0003:00003304       JclFileUtils.VerKeyNames
 0001:0004A320       JclFileUtils.VersionFixedFileInfo
 0001:00049EB0       JclFileUtils.WindowToModuleFileName
 0004:00088C4C       JclHookExcept..1
 0001:00060B98       JclHookExcept.DoExceptNotify
 0004:00088C58       JclHookExcept.Filters
 0001:00060E28       JclHookExcept.Finalization
 0001:00060AC4       JclHookExcept.FreeThreadObjList
 0001:00060B94       JclHookExcept.GetFramePointer
 0001:00060CCC       JclHookExcept.HookedRaiseException
 0001:00060D34       JclHookExcept.JclBelongsHookedCode
 0001:00060DF8       JclHookExcept.JclHookedExceptModulesList
 0002:00000B18       JclHookExcept.JclHookExcept
 0001:00060D50       JclHookExcept.JclRemoveExceptNotifier
 0004:00088C50       JclHookExcept.Kernel32_RaiseException
 0005:00000014       JclHookExcept.NewResultExc
 0004:00088C54       JclHookExcept.Notifiers
 0005:00000010       JclHookExcept.Recursive
 0001:00060B48       JclHookExcept.TNotifierItem.DoNotify
 0003:000034C0       JclHookExcept.UnitVersioning
 0004:000872E4       JclIniFiles..1
 0001:0004406C       JclIniFiles.Finalization
 0002:00000914       JclIniFiles.JclIniFiles
 0003:00002288       JclIniFiles.UnitVersioning
 0004:000071D0       JclLogic..1
 0001:0003CAD8       JclLogic.Finalization
 0002:0000034C       JclLogic.JclLogic
 0001:0003CAD0       JclLogic.Min
 0003:0000171C       JclLogic.UnitVersioning
 0004:000071E4       JclMath..7
 0001:000408E0       JclMath.Finalization
 0002:000003D0       JclMath.JclMath
 0003:0000213C       JclMath.PolarComplexFormatStr
 0003:00002138       JclMath.RectComplexFormatStr
 0003:00002120       JclMath.UnitVersioning
 0004:00088C44       JclPeImage..82
 0001:0004FB18       JclPeImage..EJclPeImageError
 0001:00054384       JclPeImage..TJclPeBorForm
 0001:000546F4       JclPeImage..TJclPeBorImage
 0001:000525C0       JclPeImage..TJclPeCertificate
 0001:00052728       JclPeImage..TJclPeCertificateList
 0001:00052820       JclPeImage..TJclPeCLRHeader
 0001:000524D4       JclPeImage..TJclPeDebugList
 0001:00050CBC       JclPeImage..TJclPeExportFuncItem
 0001:0005117C       JclPeImage..TJclPeExportFuncList
 0001:00053134       JclPeImage..TJclPeImage
 0001:0004FBC0       JclPeImage..TJclPeImageBaseList
 0001:0004FCF4       JclPeImage..TJclPeImagesCache
 0001:0004FFFC       JclPeImage..TJclPeImportFuncItem
 0001:000502E4       JclPeImage..TJclPeImportLibItem
 0001:00050790       JclPeImage..TJclPeImportList
 0001:00053E8C       JclPeImage..TJclPePackageInfo
 0001:00052200       JclPeImage..TJclPeRelocEntry
 0001:00052398       JclPeImage..TJclPeRelocList
 0001:0005192C       JclPeImage..TJclPeResourceItem
 0001:00051DB8       JclPeImage..TJclPeResourceList
 0001:000517D0       JclPeImage..TJclPeResourceRawStream
 0001:00051FA0       JclPeImage..TJclPeRootResourceList
 0001:00054AC8       JclPeImage..TJclPeSectionStream
 0001:00054E68       JclPeImage.AddFlagTextRes
 0001:00058914       JclPeImage.AttachLoadedModule32
 0001:00058A34       JclPeImage.AttachLoadedModule64
 0001:0005AC54       JclPeImage.CheckName
 0001:00054F18       JclPeImage.CompareResourceName
 0001:00055F1C       JclPeImage.CreateDelayImportList32
 0001:0005604C       JclPeImage.CreateDelayImportList64
 0001:000558C4       JclPeImage.CreateList32
 0001:00055A30       JclPeImage.CreateList64
 0001:00057000       JclPeImage.ExportSortByAddress
 0001:00057014       JclPeImage.ExportSortByAddressDESC
 0001:00057048       JclPeImage.ExportSortByAddrOrFwd
 0001:000570B0       JclPeImage.ExportSortByAddrOrFwdDESC
 0001:0005701C       JclPeImage.ExportSortByForwarded
 0001:00057040       JclPeImage.ExportSortByForwardedDESC
 0001:00056FEC       JclPeImage.ExportSortByHint
 0001:00056FF8       JclPeImage.ExportSortByHintDESC
 0001:00056FC4       JclPeImage.ExportSortByName
 0001:00056FD0       JclPeImage.ExportSortByNameDESC
 0001:00056FD8       JclPeImage.ExportSortByOrdinal
 0001:00056FE4       JclPeImage.ExportSortByOrdinalDESC
 0001:000570B8       JclPeImage.ExportSortBySection
 0001:00057134       JclPeImage.ExportSortBySectionDESC
 0003:00003494       JclPeImage.FilerSignature
 0001:0005B9CC       JclPeImage.Finalization
 0001:000556E0       JclPeImage.GetImportLibSortFunction
 0001:00055648       JclPeImage.GetImportSortFunction
 0001:0005565C       JclPeImage.ImportLibSortByIndex
 0001:00055664       JclPeImage.ImportLibSortByName
 0001:00055540       JclPeImage.ImportSortByDll
 0001:000555BC       JclPeImage.ImportSortByDllDESC
 0001:0005552C       JclPeImage.ImportSortByHint
 0001:00055538       JclPeImage.ImportSortByHintDESC
 0001:00055498       JclPeImage.ImportSortByName
 0001:00055524       JclPeImage.ImportSortByNameDESC
 0001:000555C4       JclPeImage.ImportSortByOrdinal
 0001:00055640       JclPeImage.ImportSortByOrdinalDESC
 0003:00003464       JclPeImage.Info
 0001:0005504C       JclPeImage.InternalImportedLibraries
 0001:00059844       JclPeImage.IsBrokenFormat32
 0001:000598E8       JclPeImage.IsBrokenFormat64
 0002:00000AE0       JclPeImage.JclPeImage
 0001:0005B378       JclPeImage.MarkQualifier
 0001:0005A37C       JclPeImage.PackageInfoProc
 0001:0005B5BC       JclPeImage.PeBorUnmangleName
 0001:0005B030       JclPeImage.PeMapImgFindSection32
 0001:0005B0F4       JclPeImage.PeMapImgFindSection64
 0001:0005B1F8       JclPeImage.PeMapImgFindSectionFromModule
 0001:0005B1B8       JclPeImage.PeMapImgFindSectionFromModule32
 0001:0005B1D8       JclPeImage.PeMapImgFindSectionFromModule64
 0001:0005AF04       JclPeImage.PeMapImgNtHeaders32
 0001:0005AF48       JclPeImage.PeMapImgNtHeaders64
 0001:0005B008       JclPeImage.PeMapImgSections32
 0001:0005B01C       JclPeImage.PeMapImgSections64
 0001:0005AF8C       JclPeImage.PeMapImgSize
 0001:0005AFB8       JclPeImage.PeMapImgSize32
 0001:0005AFCC       JclPeImage.PeMapImgSize64
 0001:0005AFE0       JclPeImage.PeMapImgTarget
 0001:000571CC       JclPeImage.PerformCheck
 0001:00055244       JclPeImage.PeSmartFunctionNameSame
 0001:00055114       JclPeImage.PeStripFunctionAW
 0001:00054F60       JclPeImage.ProcessLibraries
 0001:0005A8B8       JclPeImage.ProcessListItem
 0001:0005B4C4       JclPeImage.ReadName
 0001:0005B480       JclPeImage.ReadNameSymbol
 0001:0005B41C       JclPeImage.ReadRTTI
 0001:0005B3A4       JclPeImage.ReadSpecialSymbol
 0001:00059DC0       JclPeImage.RvaToVaEx32
 0001:00059E0C       JclPeImage.RvaToVaEx64
 0003:00003424       JclPeImage.SortFunctions
 0003:00003404       JclPeImage.SortFunctions
 0003:0000342C       JclPeImage.SortFunctions
 0001:0005A650       JclPeImage.TJclPeBorForm.ConvertFormToText
 0001:0005A5FC       JclPeImage.TJclPeBorForm.ConvertFormToText
 0001:0005A594       JclPeImage.TJclPeBorForm.Create
 0001:0005A6BC       JclPeImage.TJclPeBorForm.GetDisplayName
 0001:0005A794       JclPeImage.TJclPeBorImage.AfterOpen
 0001:0005A87C       JclPeImage.TJclPeBorImage.Clear
 0001:0005A704       JclPeImage.TJclPeBorImage.Create
 0001:0005AA0C       JclPeImage.TJclPeBorImage.CreateFormsList
 0001:0005AA70       JclPeImage.TJclPeBorImage.DependedPackages
 0001:0005A75C       JclPeImage.TJclPeBorImage.Destroy
 0001:0005ABD8       JclPeImage.TJclPeBorImage.FreeLibHandle
 0001:0005ABFC       JclPeImage.TJclPeBorImage.GetFormCount
 0001:0005AC18       JclPeImage.TJclPeBorImage.GetLibHandle
 0001:0005AE04       JclPeImage.TJclPeBorImage.GetPackageCompilerVersion
 0001:0005AEC0       JclPeImage.TJclPeBorImage.GetPackageInfo
 0001:000586E0       JclPeImage.TJclPeCertificate.Create
 0001:00058744       JclPeImage.TJclPeCertificateList.Create
 0001:00058780       JclPeImage.TJclPeCertificateList.CreateList
 0001:000587E0       JclPeImage.TJclPeCLRHeader.Create
 0001:00058818       JclPeImage.TJclPeCLRHeader.GetHasMetadata
 0001:00058844       JclPeImage.TJclPeCLRHeader.GetVersionString
 0001:0005885C       JclPeImage.TJclPeCLRHeader.ReadHeader
 0001:00058584       JclPeImage.TJclPeDebugList.Create
 0001:000585C4       JclPeImage.TJclPeDebugList.CreateList
 0001:000586C0       JclPeImage.TJclPeDebugList.GetItems
 0001:00056CC0       JclPeImage.TJclPeExportFuncItem.Create
 0001:00056D88       JclPeImage.TJclPeExportFuncItem.GetAddressOrForwardStr
 0001:00056DE4       JclPeImage.TJclPeExportFuncItem.GetForwardedFuncName
 0001:00056E28       JclPeImage.TJclPeExportFuncItem.GetForwardedFuncOrdinal
 0001:00056E58       JclPeImage.TJclPeExportFuncItem.GetForwardedLibName
 0001:00056F24       JclPeImage.TJclPeExportFuncItem.GetIsExportedVariable
 0001:00056F68       JclPeImage.TJclPeExportFuncItem.GetIsForwarded
 0001:00056F7C       JclPeImage.TJclPeExportFuncItem.GetMappedAddress
 0001:00056F8C       JclPeImage.TJclPeExportFuncItem.GetSectionName
 0001:00056FC0       JclPeImage.TJclPeExportFuncItem.SetResolveCheck
 0001:000571B4       JclPeImage.TJclPeExportFuncList.CanPerformFastNameSearch
 0001:000572B4       JclPeImage.TJclPeExportFuncList.CheckForwards
 0001:0005713C       JclPeImage.TJclPeExportFuncList.Create
 0001:00057424       JclPeImage.TJclPeExportFuncList.CreateList
 0001:0005717C       JclPeImage.TJclPeExportFuncList.Destroy
 0001:00057664       JclPeImage.TJclPeExportFuncList.GetForwardedLibsList
 0001:00057720       JclPeImage.TJclPeExportFuncList.GetItemFromName
 0001:000577E4       JclPeImage.TJclPeExportFuncList.GetItemFromOrdinal
 0001:0005782C       JclPeImage.TJclPeExportFuncList.GetItems
 0001:00057840       JclPeImage.TJclPeExportFuncList.GetName
 0001:000578E8       JclPeImage.TJclPeExportFuncList.ItemName
 0001:0005790C       JclPeImage.TJclPeExportFuncList.OrdinalValid
 0001:00057928       JclPeImage.TJclPeExportFuncList.PrepareForFastNameSearch
 0001:00057944       JclPeImage.TJclPeExportFuncList.SmartFindName
 0001:0005799C       JclPeImage.TJclPeExportFuncList.SortList
 0001:00058910       JclPeImage.TJclPeImage.AfterOpen
 0001:00058B54       JclPeImage.TJclPeImage.AttachLoadedModule
 0001:00058BB0       JclPeImage.TJclPeImage.CalculateCheckSum
 0001:00058BF4       JclPeImage.TJclPeImage.CheckNotAttached
 0001:00058C14       JclPeImage.TJclPeImage.Clear
 0001:00058888       JclPeImage.TJclPeImage.Create
 0001:00058CD0       JclPeImage.TJclPeImage.DateTimeToStamp
 0001:00058CF4       JclPeImage.TJclPeImage.DebugTypeNames
 0001:000588CC       JclPeImage.TJclPeImage.Destroy
 0001:00058DB8       JclPeImage.TJclPeImage.DirectoryEntryToData
 0001:00058DD4       JclPeImage.TJclPeImage.DirectoryNames
 0001:00058F74       JclPeImage.TJclPeImage.ExpandBySearchPath
 0001:00059050       JclPeImage.TJclPeImage.ExpandModuleName
 0001:000590A8       JclPeImage.TJclPeImage.GetCertificateList
 0001:000590C8       JclPeImage.TJclPeImage.GetCLRHeader
 0001:000590E8       JclPeImage.TJclPeImage.GetDebugList
 0001:00059108       JclPeImage.TJclPeImage.GetDescription
 0001:000591B0       JclPeImage.TJclPeImage.GetDirectories
 0001:0005921C       JclPeImage.TJclPeImage.GetDirectoryExists
 0001:0005923C       JclPeImage.TJclPeImage.GetExportList
 0001:0005925C       JclPeImage.TJclPeImage.GetFileProperties
 0001:000592D4       JclPeImage.TJclPeImage.GetImageSectionCount
 0001:000592E0       JclPeImage.TJclPeImage.GetImageSectionHeaders
 0001:00059300       JclPeImage.TJclPeImage.GetImageSectionNameFromRva
 0001:00059324       JclPeImage.TJclPeImage.GetImportList
 0001:00059344       JclPeImage.TJclPeImage.GetMappedAddress
 0001:0005935C       JclPeImage.TJclPeImage.GetOptionalHeader32
 0001:00059388       JclPeImage.TJclPeImage.GetOptionalHeader64
 0001:000593B4       JclPeImage.TJclPeImage.GetRelocationList
 0001:000593D4       JclPeImage.TJclPeImage.GetResourceList
 0001:00059424       JclPeImage.TJclPeImage.GetSectionHeader
 0001:00059454       JclPeImage.TJclPeImage.GetSectionName
 0001:0005948C       JclPeImage.TJclPeImage.GetUnusedHeaderBytes
 0001:000594C0       JclPeImage.TJclPeImage.GetVersionInfo
 0001:0005957C       JclPeImage.TJclPeImage.GetVersionInfoAvailable
 0001:000595BC       JclPeImage.TJclPeImage.HeaderNames
 0001:0005998C       JclPeImage.TJclPeImage.IsBrokenFormat
 0001:000599C0       JclPeImage.TJclPeImage.IsCLR
 0001:000599EC       JclPeImage.TJclPeImage.IsSystemImage
 0001:00059A08       JclPeImage.TJclPeImage.LoadConfigNames
 0001:00059B5C       JclPeImage.TJclPeImage.RaiseStatusException
 0001:00059BE0       JclPeImage.TJclPeImage.RawToVa
 0001:00059BE8       JclPeImage.TJclPeImage.ReadImageSections
 0001:00059CFC       JclPeImage.TJclPeImage.ResourceItemCreate
 0001:00059D10       JclPeImage.TJclPeImage.ResourceListCreate
 0001:00059D24       JclPeImage.TJclPeImage.RvaToSection
 0001:00059DA0       JclPeImage.TJclPeImage.RvaToVa
 0001:00059E8C       JclPeImage.TJclPeImage.RvaToVaEx
 0001:00059EC4       JclPeImage.TJclPeImage.SetFileName
 0001:00059FB8       JclPeImage.TJclPeImage.ShortSectionInfo
 0001:0005A054       JclPeImage.TJclPeImage.StampToDateTime
 0001:0005A04C       JclPeImage.TJclPeImage.StatusOK
 0001:0005A084       JclPeImage.TJclPeImage.TryGetNamesForOrdinalImports
 0001:0005A144       JclPeImage.TJclPeImage.VerifyCheckSum
 0001:00055458       JclPeImage.TJclPeImageBaseList.Create
 0001:000553B8       JclPeImage.TJclPeImagesCache.Clear
 0001:00055324       JclPeImage.TJclPeImagesCache.Create
 0001:0005537C       JclPeImage.TJclPeImagesCache.Destroy
 0001:000553F4       JclPeImage.TJclPeImagesCache.GetCount
 0001:00055400       JclPeImage.TJclPeImagesCache.GetImages
 0001:00055450       JclPeImage.TJclPeImagesCache.GetPeImageClass
 0001:000556EC       JclPeImage.TJclPeImportFuncItem.Create
 0001:00055754       JclPeImage.TJclPeImportFuncItem.GetIsByOrdinal
 0001:00055760       JclPeImage.TJclPeImportFuncItem.SetIndirectImportName
 0001:00055778       JclPeImage.TJclPeImportFuncItem.SetResolveCheck
 0001:000557E4       JclPeImage.TJclPeImportLibItem.CheckImports
 0001:0005577C       JclPeImage.TJclPeImportLibItem.Create
 0001:00055BAC       JclPeImage.TJclPeImportLibItem.CreateList
 0001:00055BEC       JclPeImage.TJclPeImportLibItem.GetCount
 0001:00055C04       JclPeImage.TJclPeImportLibItem.GetFileName
 0001:00055C58       JclPeImage.TJclPeImportLibItem.GetItems
 0001:00055C6C       JclPeImage.TJclPeImportLibItem.GetName
 0001:00055C80       JclPeImage.TJclPeImportLibItem.GetThunkData32
 0001:00055C90       JclPeImage.TJclPeImportLibItem.GetThunkData64
 0001:00055CA0       JclPeImage.TJclPeImportLibItem.SetImportDirectoryIndex
 0001:00055CA4       JclPeImage.TJclPeImportLibItem.SetImportKind
 0001:00055CA8       JclPeImage.TJclPeImportLibItem.SetSorted
 0001:00055CAC       JclPeImage.TJclPeImportLibItem.SetThunk
 0001:00055CB4       JclPeImage.TJclPeImportLibItem.SortList
 0001:00055DF8       JclPeImage.TJclPeImportList.CheckImports
 0001:00055D00       JclPeImage.TJclPeImportList.Create
 0001:0005617C       JclPeImage.TJclPeImportList.CreateList
 0001:00055D8C       JclPeImage.TJclPeImportList.Destroy
 0001:00056410       JclPeImage.TJclPeImportList.GetAllItemCount
 0001:0005642C       JclPeImage.TJclPeImportList.GetItems
 0001:00056440       JclPeImage.TJclPeImportList.GetUniqueLibItemCount
 0001:0005644C       JclPeImage.TJclPeImportList.GetUniqueLibNames
 0001:00056468       JclPeImage.TJclPeImportList.MakeBorlandImportTableForMappedImage
 0001:00056730       JclPeImage.TJclPeImportList.RefreshAllItems
 0001:00056800       JclPeImage.TJclPeImportList.SetFilterModuleName
 0001:00056848       JclPeImage.TJclPeImportList.SmartFindName
 0001:0005696C       JclPeImage.TJclPeImportList.SortAllItemsList
 0001:000569A0       JclPeImage.TJclPeImportList.SortList
 0001:00056B30       JclPeImage.TJclPeImportList.TryGetNamesForOrdinalImports
 0001:0005A180       JclPeImage.TJclPePackageInfo.Create
 0001:0005A1E0       JclPeImage.TJclPePackageInfo.Destroy
 0001:0005A228       JclPeImage.TJclPePackageInfo.GetContains
 0001:0005A22C       JclPeImage.TJclPePackageInfo.GetContainsCount
 0001:0005A240       JclPeImage.TJclPePackageInfo.GetRequires
 0001:0005A244       JclPeImage.TJclPePackageInfo.GetRequiresCount
 0001:0005A258       JclPeImage.TJclPePackageInfo.PackageModuleTypeToString
 0001:0005A2B8       JclPeImage.TJclPePackageInfo.PackageOptionsToString
 0001:0005A310       JclPeImage.TJclPePackageInfo.ProducerToString
 0001:0005A3CC       JclPeImage.TJclPePackageInfo.ReadPackageInfo
 0001:0005A514       JclPeImage.TJclPePackageInfo.SetDcpName
 0001:0005A528       JclPeImage.TJclPePackageInfo.UnitInfoFlagsToString
 0001:0005848C       JclPeImage.TJclPeRelocEntry.Create
 0001:000584D4       JclPeImage.TJclPeRelocEntry.GetSize
 0001:000584DC       JclPeImage.TJclPeRelocEntry.GetVirtualAddress
 0001:000584E4       JclPeImage.TJclPeRelocList.Create
 0001:00058520       JclPeImage.TJclPeRelocList.CreateList
 0001:00057C14       JclPeImage.TJclPeResourceItem.CompareName
 0001:00057B74       JclPeImage.TJclPeResourceItem.Create
 0001:00057BDC       JclPeImage.TJclPeResourceItem.Destroy
 0001:00057C88       JclPeImage.TJclPeResourceItem.GetDataEntry
 0001:00057CAC       JclPeImage.TJclPeResourceItem.GetIsDirectory
 0001:00057CB8       JclPeImage.TJclPeResourceItem.GetIsName
 0001:00057CC4       JclPeImage.TJclPeResourceItem.GetLangID
 0001:00057D5C       JclPeImage.TJclPeResourceItem.GetList
 0001:00057DB4       JclPeImage.TJclPeResourceItem.GetName
 0001:00057E18       JclPeImage.TJclPeResourceItem.GetParameterName
 0001:00057E74       JclPeImage.TJclPeResourceItem.GetRawEntryData
 0001:00057E9C       JclPeImage.TJclPeResourceItem.GetRawEntryDataSize
 0001:00057EC4       JclPeImage.TJclPeResourceItem.GetResourceType
 0001:00057ED8       JclPeImage.TJclPeResourceItem.GetResourceTypeStr
 0001:00057F54       JclPeImage.TJclPeResourceItem.Level1Item
 0001:00057F60       JclPeImage.TJclPeResourceItem.OffsetToRawData
 0001:00057F70       JclPeImage.TJclPeResourceItem.SubDirData
 0001:00057F84       JclPeImage.TJclPeResourceList.Create
 0001:00057FDC       JclPeImage.TJclPeResourceList.CreateList
 0001:00058024       JclPeImage.TJclPeResourceList.FindName
 0001:000580B0       JclPeImage.TJclPeResourceList.GetItems
 0001:000579E4       JclPeImage.TJclPeResourceRawStream.Create
 0001:00057B5C       JclPeImage.TJclPeResourceRawStream.Write
 0001:000580C4       JclPeImage.TJclPeRootResourceList.Destroy
 0001:000580FC       JclPeImage.TJclPeRootResourceList.FindResource
 0001:000581DC       JclPeImage.TJclPeRootResourceList.FindResource
 0001:00058280       JclPeImage.TJclPeRootResourceList.GetManifestContent
 0001:000583A8       JclPeImage.TJclPeRootResourceList.ListResourceNames
 0001:0005B22C       JclPeImage.TJclPeSectionStream.Create
 0001:0005B278       JclPeImage.TJclPeSectionStream.Initialize
 0001:0005B360       JclPeImage.TJclPeSectionStream.Write
 0001:000569BC       JclPeImage.TryGetNames
 0001:0005B76C       JclPeImage.UndecorateSymbolName
 0003:00003498       JclPeImage.UndecorateSymbolNameA
 0003:0000349C       JclPeImage.UndecorateSymbolNameAFailed
 0003:000034A0       JclPeImage.UndecorateSymbolNameW
 0003:000034A4       JclPeImage.UndecorateSymbolNameWFailed
 0003:000033EC       JclPeImage.UnitVersioning
 0001:0005A0A4       JclPeImage.VerifyCheckSum32
 0001:0005A0F4       JclPeImage.VerifyCheckSum64
 0004:000872B8       JclRegistry..3
 0001:00043CFC       JclRegistry.Finalization
 0002:00000488       JclRegistry.JclRegistry
 0003:000021AC       JclRegistry.RootKeys
 0003:00002254       JclRegistry.UnitVersioning
 0004:000071C0       JclResources..1
 0001:0003AC80       JclResources.Finalization
 0002:000002F4       JclResources.JclResources
 0003:000016A4       JclResources.UnitVersioning
 0004:00088718       JclSecurity..2
 0001:0004847C       JclSecurity.Finalization
 0002:000009D8       JclSecurity.JclSecurity
 0003:000032B0       JclSecurity.UnitVersioning
 0004:00088714       JclShell..1
 0001:000482B4       JclShell.Finalization
 0002:000009BC       JclShell.JclShell
 0003:00003294       JclShell.RtdlMsiLibHandle
 0003:00003298       JclShell.UnitVersioning
 0004:00088730       JclStreams..72
 0001:0004CCD4       JclStreams.Finalization
 0002:00000A68       JclStreams.JclStreams
 0003:00003378       JclStreams.UnitVersioning
 0004:000071D8       JclStringConversions..3
 0001:0003CB10       JclStringConversions..EJclStringConversionError
 0001:0003CBD0       JclStringConversions..EJclUnexpectedEOSequenceError
 0001:0003CE7C       JclStringConversions.EJclUnexpectedEOSequenceError.Create
 0001:0003DB7C       JclStringConversions.Finalization
 0001:0003CEB8       JclStringConversions.FlagInvalidSequence
 0003:00001758       JclStringConversions.HalfBase
 0003:0000175C       JclStringConversions.HalfMask
 0003:00001754       JclStringConversions.HalfShift
 0002:0000037C       JclStringConversions.JclStringConversions
 0001:0003DAC4       JclStringConversions.TryUTF16ToUTF8
 0001:0003D9CC       JclStringConversions.TryUTF8ToUTF16
 0003:0000173C       JclStringConversions.UnitVersioning
 0001:0003D750       JclStringConversions.UTF16GetNextChar
 0001:0003D820       JclStringConversions.UTF16SetNextChar
 0001:0003CEC8       JclStringConversions.UTF8GetNextChar
 0001:0003D3B8       JclStringConversions.UTF8SetNextChar
 0001:0003D8EC       JclStringConversions.UTF8ToUTF16
 0004:000872B4       JclStrings..9
 0003:000021A4       JclStrings.BoolToStr
 0001:000430C4       JclStrings.CharIsDigit
 0001:000430D4       JclStrings.CharIsHexDigit
 0001:000430FC       JclStrings.CharIsLower
 0001:0004310C       JclStrings.CharIsReturn
 0001:00043120       JclStrings.CharIsUpper
 0001:00043130       JclStrings.CharIsValidIdentifierLetter
 0001:000431EC       JclStrings.CharIsWhiteSpace
 0001:00043210       JclStrings.CharLastPos
 0001:00043204       JclStrings.CharLower
 0001:000432E4       JclStrings.CharPos
 0001:00043744       JclStrings.Finalization
 0002:00000464       JclStrings.JclStrings
 0001:000427A4       JclStrings.LoadCaseMap
 0001:00042764       JclStrings.LoadCharTypes
 0001:00043050       JclStrings.StrBefore
 0001:0004282C       JclStrings.StrCase
 0004:000072B4       JclStrings.StrCaseMap
 0003:00002188       JclStrings.StrCaseMapReady
 0004:000672B4       JclStrings.StrCharTypes
 0001:00042E5C       JclStrings.StrCompare
 0001:00042C3C       JclStrings.StrCompareRangeEx
 0001:000428AC       JclStrings.StrEnsureNoSuffix
 0001:000429A4       JclStrings.StrEnsureSuffix
 0001:00042F2C       JclStrings.StrFind
 0001:00043600       JclStrings.StringsToStr
 0001:00042FE8       JclStrings.StrIPos
 0001:00043084       JclStrings.StrLeft
 0001:000430A0       JclStrings.StrMid
 0001:00042A94       JclStrings.StrReplaceChar
 0001:00042BF0       JclStrings.StrResetLength
 0001:00042BA4       JclStrings.StrResetLength
 0001:00042B6C       JclStrings.StrResetLength
 0001:0004288C       JclStrings.StrSame
 0001:000433B4       JclStrings.StrToStrings
 0001:00042B44       JclStrings.StrUpper
 0001:00042B60       JclStrings.StrUpperInPlace
 0003:0000218C       JclStrings.UnitVersioning
 0004:00088C38       JclSynch..91
 0001:0004D668       JclSynch..EJclMutexError
 0001:0004D2E0       JclSynch..TJclCriticalSection
 0001:0004CFE4       JclSynch..TJclDispatcherObject
 0001:0004D4A8       JclSynch..TJclMutex
 0001:0004DBE4       JclSynch.Finalization
 0002:00000AA8       JclSynch.JclSynch
 0001:0004D8A4       JclSynch.LockedCompareExchange
 0001:0004D8AC       JclSynch.MapSignalResult
 0001:0004D9CC       JclSynch.TJclCriticalSection.Create
 0001:0004DA3C       JclSynch.TJclCriticalSection.CreateAndEnter
 0001:0004DA0C       JclSynch.TJclCriticalSection.Destroy
 0001:0004DA70       JclSynch.TJclCriticalSection.Enter
 0001:0004DA7C       JclSynch.TJclCriticalSection.Leave
 0001:0004D8E0       JclSynch.TJclDispatcherObject.Attach
 0001:0004D92C       JclSynch.TJclDispatcherObject.Destroy
 0001:0004D95C       JclSynch.TJclDispatcherObject.SignalAndWait
 0001:0004D98C       JclSynch.TJclDispatcherObject.WaitAlertable
 0001:0004D9A8       JclSynch.TJclDispatcherObject.WaitFor
 0001:0004D9C0       JclSynch.TJclDispatcherObject.WaitForever
 0001:0004DA88       JclSynch.TJclMutex.Acquire
 0001:0004DAA0       JclSynch.TJclMutex.Create
 0001:0004DB3C       JclSynch.TJclMutex.Open
 0001:0004DBD0       JclSynch.TJclMutex.Release
 0003:000033AC       JclSynch.UnitVersioning
 0004:000872E8       JclSysInfo..1
 0001:000443D8       JclSysInfo.AddToList
 0003:00002B00       JclSysInfo.AllocGranularity
 0001:0004452C       JclSysInfo.EnumModulesPS
 0001:0004464C       JclSysInfo.EnumModulesTH
 0001:000444A4       JclSysInfo.EnumModulesVQ
 0001:00044220       JclSysInfo.ExpandEnvironmentVar
 0001:00045210       JclSysInfo.Finalization
 0001:00044D30       JclSysInfo.FinalizeSysInfo
 0001:0004436C       JclSysInfo.GetCurrentFolder
 0001:000442E8       JclSysInfo.GetEnvironmentVar
 0001:000442C0       JclSysInfo.GetEnvironmentVar
 0001:00044A7C       JclSysInfo.GetNativeSystemInfo
 0001:00044834       JclSysInfo.GetWindowsVersion
 0001:00044B28       JclSysInfo.InitSysInfo
 0003:000022F0       JclSysInfo.IntelCacheDescription
 0001:00044810       JclSysInfo.IsSystemModule
 0003:000022D4       JclSysInfo.IsWin2003
 0003:000022DC       JclSysInfo.IsWin2003R2
 0003:000022CC       JclSysInfo.IsWin2K
 0003:000022E8       JclSysInfo.IsWin7
 0003:000022A0       JclSysInfo.IsWin95
 0003:000022A4       JclSysInfo.IsWin95OSR2
 0003:000022A8       JclSysInfo.IsWin98
 0003:000022AC       JclSysInfo.IsWin98SE
 0003:000022B0       JclSysInfo.IsWinME
 0003:000022B4       JclSysInfo.IsWinNT
 0003:000022B8       JclSysInfo.IsWinNT3
 0003:000022BC       JclSysInfo.IsWinNT31
 0003:000022C0       JclSysInfo.IsWinNT35
 0003:000022C4       JclSysInfo.IsWinNT351
 0003:000022C8       JclSysInfo.IsWinNT4
 0003:000022E4       JclSysInfo.IsWinServer2008
 0003:000022EC       JclSysInfo.IsWinServer2008R2
 0003:000022E0       JclSysInfo.IsWinVista
 0003:000022D0       JclSysInfo.IsWinXP
 0003:000022D8       JclSysInfo.IsWinXP64
 0002:00000930       JclSysInfo.JclSysInfo
 0004:000872EC       JclSysInfo.KernelVersionHi
 0001:00044778       JclSysInfo.LoadedModulesList
 0001:000447E4       JclSysInfo.ModuleFromAddr
 0004:000872F4       JclSysInfo.MyGetFreeSystemResources
 0003:00002B04       JclSysInfo.PageSize
 0003:00002AFC       JclSysInfo.ProcessorCount
 0004:000872F0       JclSysInfo.ResmeterLibHandle
 0003:00002B08       JclSysInfo.UnitVersioning
 0001:00044B04       JclSysInfo.UnloadSystemResourcesMeterLib
 0004:0008872C       JclSysUtils..71
 0001:0004BBA0       JclSysUtils..ESharedMemError
 0001:0004BDF4       JclSysUtils..TJclIntfCriticalSection
 0001:0004BC44       JclSysUtils..TJclReferenceMemoryStream
 0001:0004C574       JclSysUtils.ArrayItemPointer
 0001:0004CAB0       JclSysUtils.Finalization
 0001:0004C234       JclSysUtils.GetAccessToHandleList
 0003:0000336C       JclSysUtils.GlobalMMFHandleListCS
 0003:00003370       JclSysUtils.InfMantissa
 0001:0004C97C       JclSysUtils.InheritsFromByName
 0002:00000A48       JclSysUtils.JclSysUtils
 0003:00003368       JclSysUtils.MMFFinalized
 0003:00003364       JclSysUtils.MMFHandleList
 0001:0004C58C       JclSysUtils.QuickSort
 0001:0004C178       JclSysUtils.ResetMemory
 0001:0004C760       JclSysUtils.SearchDynArray
 0001:0004C56C       JclSysUtils.SharedCloseMem
 0001:0004C4A4       JclSysUtils.SharedFreeMem
 0001:0004C28C       JclSysUtils.SharedGetMem
 0004:00088728       JclSysUtils.SimpleLog
 0001:0004C6E0       JclSysUtils.SortDynArray
 0001:0004C9EC       JclSysUtils.TJclIntfCriticalSection.Create
 0001:0004CA30       JclSysUtils.TJclIntfCriticalSection.Destroy
 0001:0004CA88       JclSysUtils.TJclIntfCriticalSection.QueryInterface
 0001:0004CA60       JclSysUtils.TJclIntfCriticalSection._AddRef
 0001:0004CA74       JclSysUtils.TJclIntfCriticalSection._Release
 0001:0004C7EC       JclSysUtils.TJclReferenceMemoryStream.Create
 0001:0004C964       JclSysUtils.TJclReferenceMemoryStream.Write
 0003:0000334C       JclSysUtils.UnitVersioning
 0001:0004C9D4       JclSysUtils.UnloadModule
 0004:00088C48       JclTD32..12
 0001:0005E100       JclTD32..TJclPeBorTD32Image
 0001:0005D464       JclTD32..TJclTD32ConstantSymbolInfo
 0001:0005CD88       JclTD32..TJclTD32DataSymbolInfo
 0001:0005CFE8       JclTD32..TJclTD32GDataSymbolInfo
 0001:0005CB50       JclTD32..TJclTD32GlobalProcSymbolInfo
 0001:0005D998       JclTD32..TJclTD32InfoParser
 0001:0005DE44       JclTD32..TJclTD32InfoScanner
 0001:0005D2F0       JclTD32..TJclTD32LabelSymbolInfo
 0001:0005CF3C       JclTD32..TJclTD32LDataSymbolInfo
 0001:0005C3F8       JclTD32..TJclTD32LineInfo
 0001:0005CA9C       JclTD32..TJclTD32LocalProcSymbolInfo
 0001:0005C270       JclTD32..TJclTD32ModuleInfo
 0001:0005CC08       JclTD32..TJclTD32ObjNameSymbolInfo
 0001:0005C8F0       JclTD32..TJclTD32ProcSymbolInfo
 0001:0005D094       JclTD32..TJclTD32PublicSymbolInfo
 0001:0005C564       JclTD32..TJclTD32SourceModuleInfo
 0001:0005C7C0       JclTD32..TJclTD32SymbolInfo
 0001:0005D620       JclTD32..TJclTD32UdtSymbolInfo
 0001:0005D7DC       JclTD32..TJclTD32VftPathSymbolInfo
 0001:0005D144       JclTD32..TJclTD32WithSymbolInfo
 0001:000608C8       JclTD32.Finalization
 0001:00060470       JclTD32.FormatProcName
 0002:00000AFC       JclTD32.JclTD32
 0001:00060668       JclTD32.TJclPeBorTD32Image.AfterOpen
 0001:0006067C       JclTD32.TJclPeBorTD32Image.CheckDebugData
 0001:00060710       JclTD32.TJclPeBorTD32Image.Clear
 0001:00060724       JclTD32.TJclPeBorTD32Image.ClearDebugData
 0001:00060758       JclTD32.TJclPeBorTD32Image.IsDebugInfoInImage
 0001:000607D4       JclTD32.TJclPeBorTD32Image.IsDebugInfoInTds
 0001:0005F3E4       JclTD32.TJclTD32ConstantSymbolInfo.Create
 0001:0005EF9C       JclTD32.TJclTD32DataSymbolInfo.Create
 0001:0005FA88       JclTD32.TJclTD32InfoParser.Analyse
 0001:0005FD38       JclTD32.TJclTD32InfoParser.AnalyseAlignSymbols
 0001:0005FD20       JclTD32.TJclTD32InfoParser.AnalyseGlobalTypes
 0001:0005FEF0       JclTD32.TJclTD32InfoParser.AnalyseModules
 0001:0005FCD4       JclTD32.TJclTD32InfoParser.AnalyseNames
 0001:0005FF10       JclTD32.TJclTD32InfoParser.AnalyseSourceModules
 0001:0005FF58       JclTD32.TJclTD32InfoParser.AnalyseUnknownSubSection
 0001:0005F834       JclTD32.TJclTD32InfoParser.Create
 0001:0005FA10       JclTD32.TJclTD32InfoParser.Destroy
 0001:00060058       JclTD32.TJclTD32InfoParser.FindModule
 0001:000601C4       JclTD32.TJclTD32InfoParser.FindProc
 0001:00060124       JclTD32.TJclTD32InfoParser.FindSourceModule
 0001:0005FF5C       JclTD32.TJclTD32InfoParser.GetModule
 0001:0005FF70       JclTD32.TJclTD32InfoParser.GetModuleCount
 0001:0005FF78       JclTD32.TJclTD32InfoParser.GetName
 0001:00060010       JclTD32.TJclTD32InfoParser.GetNameCount
 0001:0006003C       JclTD32.TJclTD32InfoParser.GetProcSymbol
 0001:00060050       JclTD32.TJclTD32InfoParser.GetProcSymbolCount
 0001:00060018       JclTD32.TJclTD32InfoParser.GetSourceModule
 0001:0006002C       JclTD32.TJclTD32InfoParser.GetSourceModuleCount
 0001:00060034       JclTD32.TJclTD32InfoParser.GetSymbolCount
 0001:00060220       JclTD32.TJclTD32InfoParser.IsTD32DebugInfoValid
 0001:000603A0       JclTD32.TJclTD32InfoParser.IsTD32Sign
 0001:000603B8       JclTD32.TJclTD32InfoParser.LfaToVa
 0001:000603CC       JclTD32.TJclTD32InfoScanner.LineNumberFromAddr
 0001:000603C0       JclTD32.TJclTD32InfoScanner.LineNumberFromAddr
 0001:00060418       JclTD32.TJclTD32InfoScanner.ModuleNameFromAddr
 0001:00060450       JclTD32.TJclTD32InfoScanner.ProcNameFromAddr
 0001:000605AC       JclTD32.TJclTD32InfoScanner.ProcNameFromAddr
 0001:00060638       JclTD32.TJclTD32InfoScanner.SourceNameFromAddr
 0001:0005F27C       JclTD32.TJclTD32LabelSymbolInfo.Create
 0001:0005E6E8       JclTD32.TJclTD32LineInfo.Create
 0001:0005E440       JclTD32.TJclTD32ModuleInfo.Create
 0001:0005E5A4       JclTD32.TJclTD32ModuleInfo.GetSegment
 0001:0005EE34       JclTD32.TJclTD32ObjNameSymbolInfo.Create
 0001:0005ECC4       JclTD32.TJclTD32ProcSymbolInfo.Create
 0001:0005E730       JclTD32.TJclTD32SourceModuleInfo.Create
 0001:0005E938       JclTD32.TJclTD32SourceModuleInfo.Destroy
 0001:0005EAC8       JclTD32.TJclTD32SourceModuleInfo.FindLine
 0001:0005E970       JclTD32.TJclTD32SourceModuleInfo.GetLine
 0001:0005E984       JclTD32.TJclTD32SourceModuleInfo.GetLineCount
 0001:0005E98C       JclTD32.TJclTD32SourceModuleInfo.GetSegment
 0001:0005EB68       JclTD32.TJclTD32SymbolInfo.Create
 0001:0005F554       JclTD32.TJclTD32UdtSymbolInfo.Create
 0001:0005F6C4       JclTD32.TJclTD32VftPathSymbolInfo.Create
 0001:0005F10C       JclTD32.TJclTD32WithSymbolInfo.Create
 0003:000034A8       JclTD32.UnitVersioning
 0004:000872FC       JclUnicode..8
 0004:00087B04       JclUnicode.CanonicalDecompositions
 0004:00087704       JclUnicode.CaseMapping
 0004:00087304       JclUnicode.Categories
 0004:00088304       JclUnicode.CCCs
 0001:00047BFC       JclUnicode.CodePageFromLocale
 0001:00047C70       JclUnicode.CompareTextWin95
 0001:00047DC4       JclUnicode.CompareTextWinNT
 0004:00087F04       JclUnicode.CompatibleDecompositions
 0004:0008870C       JclUnicode.Compositions
 0001:00047E60       JclUnicode.Finalization
 0001:00047E4C       JclUnicode.FreeUnicodeData
 0002:00000958       JclUnicode.JclUnicode
 0004:00087300       JclUnicode.LoadInProgress
 0004:00088704       JclUnicode.NumberCodes
 0004:00088708       JclUnicode.Numbers
 0001:00047E18       JclUnicode.PrepareUnicodeData
 0003:00002B20       JclUnicode.UnicodeBlockData
 0003:00003264       JclUnicode.UnitVersioning
 0004:000872F8       JclUnicode.WideCompareText
 0004:00088C3C       JclUnitVersioning..5
 0001:0004E190       JclUnitVersioning..TCustomUnitVersioningProvider
 0001:0004DCA4       JclUnitVersioning..TUnitVersion
 0001:0004E364       JclUnitVersioning..TUnitVersioning
 0001:0004DF4C       JclUnitVersioning..TUnitVersioningModule
 0001:0004E8F8       JclUnitVersioning.CompareFilenames
 0001:0004FA8C       JclUnitVersioning.Finalization
 0001:0004F998       JclUnitVersioning.FinalizeUnitVersioning
 0001:0004F74C       JclUnitVersioning.GetUnitVersioning
 0003:000033E0       JclUnitVersioning.GlobalUnitVersioning
 0002:00000AC4       JclUnitVersioning.JclUnitVersioning
 0001:0004FA58       JclUnitVersioning.RegisterUnitVersion
 0001:0004E7EC       JclUnitVersioning.StartsWith
 0001:0004F370       JclUnitVersioning.TCustomUnitVersioningProvider.Create
 0001:0004F3A8       JclUnitVersioning.TCustomUnitVersioningProvider.LoadModuleUnitVersioningInfo
 0001:0004F3AC       JclUnitVersioning.TCustomUnitVersioningProvider.ReleaseModuleUnitVersioningInfo
 0001:0004E900       JclUnitVersioning.TUnitVersion.Create
 0001:0004EC3C       JclUnitVersioning.TUnitVersion.Data
 0001:0004EB84       JclUnitVersioning.TUnitVersion.Date
 0001:0004ECEC       JclUnitVersioning.TUnitVersion.DateTime
 0001:0004EC44       JclUnitVersioning.TUnitVersion.Extra
 0001:0004EC98       JclUnitVersioning.TUnitVersion.LogPath
 0001:0004E93C       JclUnitVersioning.TUnitVersion.RCSfile
 0001:0004EAD0       JclUnitVersioning.TUnitVersion.Revision
 0001:0004F0B4       JclUnitVersioning.TUnitVersion.Summary
 0001:0004F43C       JclUnitVersioning.TUnitVersioning.Add
 0001:0004F3B0       JclUnitVersioning.TUnitVersioning.Create
 0001:0004F404       JclUnitVersioning.TUnitVersioning.Destroy
 0001:0004F610       JclUnitVersioning.TUnitVersioning.FindUnit
 0001:0004F524       JclUnitVersioning.TUnitVersioning.GetCount
 0001:0004F570       JclUnitVersioning.TUnitVersioning.GetModule
 0001:0004F55C       JclUnitVersioning.TUnitVersioning.GetModuleCount
 0001:0004F654       JclUnitVersioning.TUnitVersioning.IndexOf
 0001:0004F71C       JclUnitVersioning.TUnitVersioning.LoadModuleUnitVersioningInfo
 0001:0004F6C8       JclUnitVersioning.TUnitVersioning.RegisterProvider
 0001:0004F518       JclUnitVersioning.TUnitVersioning.UnregisterModule
 0001:0004F4BC       JclUnitVersioning.TUnitVersioning.UnregisterModule
 0001:0004F584       JclUnitVersioning.TUnitVersioning.ValidateModules
 0001:0004F224       JclUnitVersioning.TUnitVersioningModule.Add
 0001:0004F18C       JclUnitVersioning.TUnitVersioningModule.Create
 0001:0004F1D8       JclUnitVersioning.TUnitVersioningModule.Destroy
 0001:0004F278       JclUnitVersioning.TUnitVersioningModule.FindUnit
 0001:0004F208       JclUnitVersioning.TUnitVersioningModule.GetCount
 0001:0004F210       JclUnitVersioning.TUnitVersioningModule.GetItems
 0001:0004F298       JclUnitVersioning.TUnitVersioningModule.IndexOf
 0001:0004F244       JclUnitVersioning.TUnitVersioningModule.IndexOfInfo
 0003:000033C4       JclUnitVersioning.UnitVersioning
 0003:000033E8       JclUnitVersioning.UnitVersioningFinalized
 0004:00088C40       JclUnitVersioning.UnitVersioningMutex
 0003:000033E4       JclUnitVersioning.UnitVersioningNPA
 0003:000033DC       JclUnitVersioning.UnitVersioningOwner
 0001:0004FA74       JclUnitVersioning.UnregisterUnitVersion
 0004:00088710       JclWideStrings..2
 0001:000480FC       JclWideStrings.Finalization
 0002:000009A0       JclWideStrings.JclWideStrings
 0003:0000327C       JclWideStrings.UnitVersioning
 0004:000071CC       JclWin32..2
 0001:0003B074       JclWin32..EJclWin32Error
 0001:0003C484       JclWin32.CheckSumMappedFile
 0001:0003C84C       JclWin32.CreateMutex
 0001:0003C88C       JclWin32.CreateToolhelp32Snapshot
 0001:0003C0C4       JclWin32.EJclWin32Error.Create
 0001:0003C1A0       JclWin32.EJclWin32Error.CreateFmt
 0001:0003C390       JclWin32.EJclWin32Error.CreateRes
 0001:0003C29C       JclWin32.EJclWin32Error.CreateRes
 0001:0003C920       JclWin32.Finalization
 0001:0003C514       JclWin32.GetImageUnusedHeaderBytes
 0001:0003BFD4       JclWin32.GetProcedureAddress
 0001:0003C854       JclWin32.GetVersionEx
 0001:0003C6A4       JclWin32.ImageDirectoryEntryToData
 0001:0003C740       JclWin32.ImageRvaToSection
 0001:0003C7C8       JclWin32.ImageRvaToVa
 0001:0003C884       JclWin32.IMAGE_ORDINAL32
 0001:0003C85C       JclWin32.IMAGE_ORDINAL64
 0002:00000330       JclWin32.JclWin32
 0001:0003C5A8       JclWin32.MapAndLoad
 0003:000016E4       JclWin32.UnitVersioning
 0001:0003C62C       JclWin32.UnMapAndLoad
 0003:000016FC       JclWin32._CheckSumMappedFile
 0003:00001718       JclWin32._CreateToolhelp32Snapshot
 0003:00001700       JclWin32._GetImageUnusedHeaderBytes
 0003:0000170C       JclWin32._ImageDirectoryEntryToData
 0003:00001710       JclWin32._ImageRvaToSection
 0003:00001714       JclWin32._ImageRvaToVa
 0003:00001704       JclWin32._MapAndLoad
 0003:00001708       JclWin32._UnMapAndLoad
 0001:00042054       PsAPI.CheckPSAPILoaded
 0001:00042534       PsAPI.EnumProcessModules
 0001:00042564       PsAPI.GetModuleFileNameEx
 0001:00042594       PsAPI.GetModuleInformation
 0004:00007254       PsAPI.hPSAPI
 0004:0000727C       PsAPI._EmptyWorkingSet
 0004:000072AC       PsAPI._EnumDeviceDrivers
 0004:00007258       PsAPI._EnumProcesses
 0004:0000725C       PsAPI._EnumProcessModules
 0004:0000728C       PsAPI._GetDeviceDriverBaseName
 0004:00007298       PsAPI._GetDeviceDriverBaseNameA
 0004:000072A4       PsAPI._GetDeviceDriverBaseNameW
 0004:00007290       PsAPI._GetDeviceDriverFileName
 0004:0000729C       PsAPI._GetDeviceDriverFileNameA
 0004:000072A8       PsAPI._GetDeviceDriverFileNameW
 0004:00007288       PsAPI._GetMappedFileName
 0004:00007294       PsAPI._GetMappedFileNameA
 0004:000072A0       PsAPI._GetMappedFileNameW
 0004:00007260       PsAPI._GetModuleBaseName
 0004:00007268       PsAPI._GetModuleBaseNameA
 0004:00007270       PsAPI._GetModuleBaseNameW
 0004:00007264       PsAPI._GetModuleFileNameEx
 0004:0000726C       PsAPI._GetModuleFileNameExA
 0004:00007274       PsAPI._GetModuleFileNameExW
 0004:00007278       PsAPI._GetModuleInformation
 0004:000072B0       PsAPI._GetProcessMemoryInfo
 0004:00007284       PsAPI._InitializeProcessForWsWatch
 0004:00007280       PsAPI._QueryWorkingSet
 0004:000071FC       Snmp..1
 0001:00041C38       Snmp.Finalization
 0001:00041C34       Snmp.FinalizeSnmp
 0001:00041C30       Snmp.InitializeSnmp
 0002:00000444       Snmp.Snmp
 0003:00002170       Snmp.UnitVersioning
 0001:0000BD34       StrUtils.PosEx
 0004:000071AC       SyncObjs..01
 0001:00039C14       SyncObjs..TCriticalSection
 0001:00039B10       SyncObjs..TSynchroObject
 0001:0003A3DC       SyncObjs.Finalization
 0001:0003A270       SyncObjs.InitConditionVariableProcs
 0004:000071B0       SyncObjs.InitializeConditionVariableProc
 0001:00039ED0       SyncObjs.InternalInitConditionVariable
 0001:00039F00       SyncObjs.InternalSleepConditionVariableCS
 0001:00039EF0       SyncObjs.InternalWakeAllConditionVariable
 0001:00039EE0       SyncObjs.InternalWakeConditionVariable
 0004:000071B4       SyncObjs.SleepConditionVariableCSProc
 0002:000002E4       SyncObjs.SyncObjs
 0001:00039E94       SyncObjs.TCriticalSection.Acquire
 0001:00039E24       SyncObjs.TCriticalSection.Create
 0001:00039E64       SyncObjs.TCriticalSection.Destroy
 0001:00039EC0       SyncObjs.TCriticalSection.Enter
 0001:00039EC8       SyncObjs.TCriticalSection.Leave
 0001:00039EA0       SyncObjs.TCriticalSection.Release
 0001:00039EAC       SyncObjs.TCriticalSection.TryEnter
 0001:00039F1C       SyncObjs.TInternalConditionVariable.DequeueWaiter
 0001:00039F74       SyncObjs.TInternalConditionVariable.DequeueWaiterNoLock
 0001:00039F90       SyncObjs.TInternalConditionVariable.LockQueue
 0001:00039FF4       SyncObjs.TInternalConditionVariable.QueueWaiter
 0001:0003A05C       SyncObjs.TInternalConditionVariable.RemoveWaiter
 0001:0003A0E8       SyncObjs.TInternalConditionVariable.SleepCriticalSection
 0001:0003A1E0       SyncObjs.TInternalConditionVariable.UnlockQueue
 0001:0003A1E8       SyncObjs.TInternalConditionVariable.Wake
 0001:0003A1FC       SyncObjs.TInternalConditionVariable.WakeAll
 0001:00039E1C       SyncObjs.TSynchroObject.Acquire
 0001:00039E20       SyncObjs.TSynchroObject.Release
 0004:000071BC       SyncObjs.WakeAllConditionVariableProc
 0004:000071B8       SyncObjs.WakeConditionVariableProc
 0001:00009164       SysInit.@GetTls
 0001:000091B0       SysInit.@InitLib
 0001:00009084       SysInit.AllocTlsBuffer
 0004:00002C44       SysInit.DllProc
 0001:00009140       SysInit.ExitProcessTLS
 0001:00009108       SysInit.ExitThreadTLS
 0001:00009090       SysInit.GetTlsSize
 0004:00002C40       SysInit.HInstance
 0001:000091A4       SysInit.InitializeModule
 0001:000090DC       SysInit.InitProcessTLS
 0001:00009098       SysInit.InitThreadTLS
 0001:00009054       SysInit.LocalAlloc
 0001:0000905C       SysInit.LocalFree
 0003:000009F0       SysInit.Module
 0004:00002C3D       SysInit.ModuleIsCpp
 0004:00002C3C       SysInit.ModuleIsLib
 0003:000009EC       SysInit.PtrToNil
 0001:00009064       SysInit.TlsAlloc
 0004:00002C48       SysInit.tlsBuffer
 0001:0000906C       SysInit.TlsFree
 0001:00009074       SysInit.TlsGetValue
 0003:000009E8       SysInit.TlsIndex
 0005:00000018       SysInit.TlsLast
 0003:00000A0C       SysInit.TlsProc
 0001:0000907C       SysInit.TlsSetValue
 0001:00008C04       System...
 0004:00002C24       System...
 0003:000009DC       System...
 0004:000008E0       System..8
 0001:00000CD4       System..TInterfacedObject
 0001:0000046C       System..TObject
 0001:00003728       System.@AbstractError
 0001:000043C0       System.@AfterConstruction
 0001:000050BC       System.@Assert
 0001:000037F0       System.@AStrCmp
 0001:00004410       System.@BeforeDestruction
 0001:00003D28       System.@BoundErr
 0001:000040D8       System.@CallDynaInst
 0001:00004368       System.@ClassCreate
 0001:000043B8       System.@ClassDestroy
 0001:00003798       System.@Close
 0001:00006904       System.@CopyArray
 0001:000067C4       System.@CopyRecord
 0001:00006B04       System.@DispCallByIDError
 0001:00006A30       System.@Dispose
 0001:000049D0       System.@DoneExcept
 0001:0000715C       System.@DynArrayAddRef
 0001:00007134       System.@DynArrayAsg
 0001:000070F8       System.@DynArrayClear
 0001:00006F2C       System.@DynArrayHigh
 0001:00006F24       System.@DynArrayLength
 0001:000070EC       System.@DynArraySetLength
 0001:0000529C       System.@EnsureUnicodeString
 0001:00004AB8       System.@ExceptionHandler
 0001:00003860       System.@FillChar
 0001:000067A0       System.@Finalize
 0001:00006690       System.@FinalizeArray
 0001:00006640       System.@FinalizeRecord
 0001:00003D1C       System.@FpuInit
 0001:00003408       System.@FreeMem
 0001:000033EC       System.@GetMem
 0001:000050A4       System.@Halt
 0001:00004F98       System.@Halt0
 0001:00004578       System.@HandleAnyException
 0001:0000482C       System.@HandleFinally
 0001:000048D4       System.@HandleFinallyInternal
 0001:000046A4       System.@HandleOnException
 0001:00008FB8       System.@InitDelayHelp
 0001:00006634       System.@Initialize
 0001:0000659C       System.@InitializeArray
 0001:00006568       System.@InitializeRecord
 0001:00004E38       System.@InitImports
 0001:00004DF4       System.@InitResStringImports
 0001:00004E5C       System.@InitWideStrings
 0001:000052BC       System.@InternalLStrFromUStr
 0001:0000528C       System.@InternalUStrFromLStr
 0001:0000856C       System.@IntfAddRef
 0001:00008528       System.@IntfClear
 0001:00008540       System.@IntfCopy
 0001:00003D30       System.@IntOver
 0001:00004084       System.@IsClass
 0001:00005468       System.@LStrAddRef
 0001:00005100       System.@LStrArrayClr
 0001:00005130       System.@LStrAsg
 0001:000050DC       System.@LStrClr
 0001:000053E4       System.@LStrFromArray
 0001:00005350       System.@LStrFromChar
 0001:00005360       System.@LStrFromPChar
 0001:000051D8       System.@LStrFromPCharLen
 0001:00005394       System.@LStrFromPWChar
 0001:000052CC       System.@LStrFromPWCharLen
 0001:000053D4       System.@LStrFromString
 0001:00005B28       System.@LStrFromUStr
 0001:00005404       System.@LStrFromWStr
 0001:000054F8       System.@LStrSetLength
 0001:00005478       System.@LStrToPChar
 0001:0000541C       System.@LStrToString
 0001:00008BDC       System.@memcpy
 0001:00008BF0       System.@memset
 0001:00006A1C       System.@New
 0001:0000518C       System.@NewAnsiString
 0001:000062EC       System.@NewUnicodeString
 0001:00005598       System.@NewWideString
 0001:00005440       System.@PCharLen
 0001:00003A38       System.@Pow10
 0001:0000497C       System.@RaiseAgain
 0001:0000490C       System.@RaiseExcept
 0001:00003420       System.@ReallocMem
 0001:0000371C       System.@ROUND
 0001:000050B0       System.@RunError
 0001:00003A00       System.@SetElem
 0001:00003A24       System.@SetUnion
 0001:00008FC7       System.@ShutdownDelayHelp
 0001:00004C74       System.@StartLib
 0001:0000152C       System.@strlen
 0001:00001524       System.@strlenA
 0001:00004A00       System.@TryFinallyExit
 0001:000054F0       System.@UniqueStringA
 0001:000062E4       System.@UniqueStringU
 0001:000058E4       System.@UStrAddRef
 0001:000058F4       System.@UStrArrayClr
 0001:000058FC       System.@UStrAsg
 0001:00005CEC       System.@UStrCat
 0001:00005DAC       System.@UStrCat3
 0001:00005E90       System.@UStrCatN
 0001:000058EC       System.@UStrClr
 0001:00006018       System.@UStrCopy
 0001:000060E8       System.@UStrDelete
 0001:00005FB0       System.@UStrEqual
 0001:00005B00       System.@UStrFromLStr
 0001:00005A78       System.@UStrFromPChar
 0001:00005A28       System.@UStrFromPCharLen
 0001:00005AA8       System.@UStrFromPWChar
 0001:00005A38       System.@UStrFromPWCharLen
 0001:00005AE4       System.@UStrFromWArray
 0001:00005A68       System.@UStrFromWChar
 0001:00005B4C       System.@UStrFromWStr
 0001:0000615C       System.@UStrInsert
 0001:00005950       System.@UStrLAsg
 0001:00005C48       System.@UStrLen
 0001:00005C54       System.@UStrSetLength
 0001:00005988       System.@UStrToPWChar
 0001:00005B88       System.@UStrToString
 0001:00006BAC       System.@ValInt64
 0001:000038FC       System.@ValLong
 0001:00006678       System.@VarClr
 0001:000067AC       System.@VarCopy
 0001:000055D8       System.@WStrArrayClr
 0001:000055FC       System.@WStrAsg
 0001:000055C0       System.@WStrClr
 0001:000057B8       System.@WStrCmp
 0001:00005844       System.@WStrCopy
 0001:0000583C       System.@WStrEqual
 0001:0000577C       System.@WStrFromLStr
 0001:000056F4       System.@WStrFromPChar
 0001:000056C0       System.@WStrFromPCharLen
 0001:00005724       System.@WStrFromPWChar
 0001:000056D0       System.@WStrFromPWCharLen
 0001:00005B60       System.@WStrFromUStr
 0001:00005760       System.@WStrFromWArray
 0001:00005890       System.@WStrSetLength
 0001:000057A8       System.@WStrToPWChar
 0001:00008CEA       System.@_delayLoadHelper
 0001:00008F4E       System.@_FUnloadDelayLoadedDLL
 0001:000035A4       System.@_IOTest
 0001:00006B30       System.@_llmod
 0001:00006B0C       System.@_llmul
 0003:000009E0       System.@__pfnDliFailureHook
 0003:000009E4       System.@__pfnDliNotifyHook
 0004:00000034       System.AbstractErrorProc
 0001:00003500       System.AcquireExceptionObject
 0001:000083B8       System.AddModuleUnloadProc
 0001:000083C8       System.AddModuleUnloadProc
 0001:00001B28       System.AllocateLargeBlock
 0001:000033D4       System.AllocMem
 0001:00001A68       System.AllocNewSequentialFeedMediumPool
 0004:000008E4       System.AllocSize2SmallBlockTypeIndX4
 0003:00000064       System.AnsiStringBlockMessage
 0001:00002818       System.AppendClassNameToBuffer
 0001:00002800       System.AppendStringToBuffer
 0004:0000002C       System.AssertErrorProc
 0001:000019FC       System.BinMediumSequentialFeedRemainder
 0001:00003184       System.BuildBlockTypeLookupTable
 0003:0000005C       System.BytesMessage
 0004:00002B74       System.CachedLangID
 0004:00002B78       System.CachedLanguageNames
 0001:000026E4       System.CardinalToStrBuf
 0001:00005210       System.CharFromWChar
 0001:0000523C       System.CharFromWChar
 0001:0000147C       System.CharNext
 0001:00007858       System.CheckDifferentLanguageList
 0001:000044F4       System.CheckJmp
 0001:00002A7C       System.CheckSmallBlockPoolForLeaks
 0001:0000142C       System.CloseHandle
 0004:00000048       System.CmdLine
 0004:00000044       System.CmdShow
 0001:0000148C       System.CompareString
 0001:00001484       System.CompareStringW
 0001:000075D0       System.ConvertResToUILanguages
 0001:00006F34       System.CopyArray
 0003:0000004C       System.Copyright
 0004:00000058       System.CPUCount
 0004:00002B5C       System.CrSec
 0003:00000028       System.DebugHook
 0003:00000024       System.Default8087CW
 0004:000008D0       System.DefaultSystemCodePage
 0004:000008D4       System.DefaultUnicodeCodePage
 0001:00007168       System.DelayLoadResourceModule
 0001:0000144C       System.DeleteCriticalSection
 0004:00000000       System.DispCallByIDProc
 0004:00002B1C       System.DLLThreadContext
 0001:00006F4C       System.DynArrayClear
 0001:00006F54       System.DynArraySetLength
 0003:000007C0       System.EmptyStringW
 0001:00005274       System.EnsureAnsiString
 0001:00005284       System.EnsureUnicodeString
 0001:0000143C       System.EnterCriticalSection
 0001:00008384       System.EnumResourceModules
 0001:0000838C       System.EnumResourceModules
 0003:00000788       System.errCaption
 0001:00003598       System.Error
 0003:00000004       System.ErrorAddr
 0001:0000354C       System.ErrorAt
 0004:00000008       System.ErrorProc
 0004:000005FC       System.ErrOutput
 0004:0000000C       System.ExceptClsProc
 0004:00000020       System.ExceptionAcquired
 0004:00000024       System.ExceptionClass
 0001:000034E0       System.ExceptObject
 0004:00000010       System.ExceptObjProc
 0004:00000004       System.ExceptProc
 0003:00000000       System.ExitCode
 0001:00004EDC       System.ExitDll
 0004:00000050       System.ExitProc
 0001:00001494       System.ExitProcess
 0004:00000030       System.ExitProcessProc
 0004:00002AE0       System.ExpectedMemoryLeaks
 0004:00002AE4       System.ExpectedMemoryLeaksListLocked
 0003:0000000C       System.FileMode
 0001:00008FE0       System.Finalization
 0001:00006F44       System.FinalizeArray
 0001:00007504       System.FinalizeLocaleDate
 0001:00003380       System.FinalizeMemoryManager
 0001:00004BA0       System.FinalizeUnits
 0001:00007B04       System.FindBS
 0001:000014A4       System.FindClose
 0001:000040A8       System.FindDynaMethod
 0001:000014AC       System.FindFirstFile
 0001:000071B0       System.FindResourceHInstance
 0001:0000378C       System.Flush
 0001:00003A30       System.FPower10
 0001:000032F0       System.FreeAllMemory
 0001:00001B8C       System.FreeLargeBlock
 0001:000014B4       System.FreeLibrary
 0001:00008B64       System.GetACP
 0001:000015A4       System.GetCmdShow
 0001:000014BC       System.GetCommandLine
 0001:00008B6C       System.GetCPUCount
 0001:0000157C       System.GetCurrentThreadId
 0001:000026A8       System.GetFirstAndLastSmallBlockInPool
 0001:00002668       System.GetFirstMediumBlockInPool
 0001:00003020       System.GetHeapStatus
 0001:000014C4       System.GetLastError
 0001:000014CC       System.GetLocaleInfo
 0001:00007D24       System.GetLocaleOverride
 0001:00003470       System.GetMemoryManager
 0001:000014DC       System.GetModuleFileName
 0001:000014E4       System.GetModuleHandle
 0001:00002948       System.GetObjectClass
 0001:000078C0       System.GetPreferredLangForNewOS
 0001:000076C0       System.GetPreferredLangForOldOS
 0001:000014EC       System.GetProcAddress
 0001:000081D4       System.GetResourceModuleName
 0001:000014F4       System.GetStartupInfo
 0001:00001454       System.GetStdHandle
 0001:000014FC       System.GetSystemDefaultUILanguage
 0001:0000159C       System.GetSystemInfo
 0004:00002B4C       System.GetThreadPreferredUILanguages
 0004:00002B54       System.GetThreadUILanguage
 0001:00001594       System.GetTickCount
 0001:000079E0       System.GetUILanguages
 0001:000014D4       System.GetUserDefaultUILanguage
 0001:00001584       System.GetVersion
 0003:000009D8       System.hexdig
 0003:000007B0       System.hexDigits
 0004:00002AEC       System.InitContext
 0001:00001434       System.InitializeCriticalSection
 0001:00007414       System.InitializeLocaleData
 0001:000031C8       System.InitializeMemoryManager
 0004:0000004C       System.InitProc
 0001:00004C08       System.InitUnits
 0005:00000004       System.InOutRes
 0004:0000005C       System.Input
 0001:0000199C       System.InsertMediumBlockIntoBin
 0001:00001420       System.InterlockedDecrement
 0001:00001414       System.InterlockedIncrement
 0001:00003744       System.InternalFlush
 0001:000028C8       System.InternalIsValidClass
 0001:00005490       System.InternalUniqueString
 0001:00006288       System.InternalUniqueStringU
 0001:00005994       System.InternalUStrFromPCharLen
 0001:00005624       System.InternalWStrFromPCharLen
 0001:00003EF4       System.InvokeImplGetter
 0001:000035D4       System.IOResult
 0004:00000054       System.IsConsole
 0004:00000040       System.IsLibrary
 0001:00003498       System.IsMemoryManagerSet
 0004:00000055       System.IsMultiThread
 0001:00001504       System.IsValidLocale
 0001:0000284C       System.IsValidVMTAddress
 0003:0000002C       System.JITEnable
 0004:00002AD0       System.LargeBlocksCircularList
 0004:00002ACC       System.LargeBlocksLocked
 0003:00000058       System.LargeLeakDetail
 0001:00007530       System.LastHyphenPos
 0004:00000A40       System.LastSequentiallyFedMediumBlock
 0003:0000006C       System.LeakMessageFooter
 0003:00000050       System.LeakMessageHeader
 0003:00000070       System.LeakMessageTitle
 0001:00001444       System.LeaveCriticalSection
 0003:00000034       System.LibModuleList
 0001:00008178       System.Load3LettersModule
 0001:000080C8       System.LoadLanguageList
 0001:00008BCC       System.LoadLibraryA
 0001:0000150C       System.LoadLibraryEx
 0001:00007FC4       System.LoadResourceModule
 0001:00008AF8       System.LoadResString
 0001:00004D3C       System.LoadResStringA
 0001:00004DE0       System.LoadResStringU
 0001:00004D90       System.LoadResStringW
 0001:00001514       System.LoadString
 0001:00008BBC       System.LocalAlloc
 0003:000007D0       System.LocaleTable
 0001:00008BC4       System.LocalFree
 0001:000018BC       System.LockAllSmallBlockTypes
 0001:00001730       System.LockCmpxchg
 0001:00002970       System.LockExpectedMemoryLeaksList
 0001:00001AE0       System.LockLargeBlocks
 0001:00001914       System.LockMediumBlocks
 0001:00008BD4       System.lstrcmpiA
 0001:0000151C       System.lstrcpyn
 0004:00000038       System.MainInstance
 0004:0000003C       System.MainThreadID
 0001:00004E78       System.MakeErrorMessage
 0004:00002AE8       System.MappingObjectHandle
 0001:00004A18       System.MapToRunError
 0004:00000A4C       System.MediumBlockBinBitmaps
 0004:00000A48       System.MediumBlockBinGroupBitmap
 0004:00000ACC       System.MediumBlockBins
 0004:00000A2C       System.MediumBlockPoolsCircularList
 0004:00000A3C       System.MediumBlocksLocked
 0004:00000A44       System.MediumSequentialFeedBytesLeft
 0003:00000754       System.MemoryManager
 0001:0000149C       System.MessageBoxA
 0004:00000A2A       System.MinimumBlockAlignment
 0003:00000038       System.ModuleUnloadList
 0004:000008CC       System.MonitorSupport
 0001:000035F4       System.Move
 0001:00001738       System.Move12
 0001:0000174C       System.Move20
 0001:0000176C       System.Move28
 0001:00001798       System.Move36
 0001:000017B8       System.Move44
 0001:000017DC       System.Move52
 0001:00001808       System.Move60
 0001:00001838       System.Move68
 0001:00001870       System.MoveX16L4
 0001:000018A0       System.MoveX8L4
 0001:00001534       System.MultiByteToWideChar
 0004:000008DD       System.NeverSleepOnMMThreadContention
 0001:00002644       System.NextMediumBlock
 0003:00000030       System.NoErrMsg
 0001:000044E0       System.NotifyAnyExcept
 0001:000044B4       System.NotifyExcept
 0001:00004514       System.NotifyExceptFinally
 0001:0000844C       System.NotifyModuleUnload
 0001:00004490       System.NotifyNonDelphiException
 0001:000044CC       System.NotifyOnExcept
 0001:00004474       System.NotifyReRaise
 0001:0000453C       System.NotifyTerminate
 0001:00004558       System.NotifyUnhandled
 0003:0000003C       System.ObjCastGUID
 0001:00006A68       System.OleStrToStrVar
 0004:0000032C       System.Output
 0001:00006330       System.Pos
 0001:0000158C       System.QueryPerformanceCounter
 0001:0000145C       System.RaiseException
 0004:00000014       System.RaiseExceptionProc
 0004:0000001C       System.RaiseExceptObjProc
 0001:00003534       System.RaiseList
 0005:00000000       System.RaiseListPtr
 0001:000036F4       System.Randomize
 0003:00000008       System.RandSeed
 0001:00001C30       System.ReallocateLargeBlock
 0001:0000153C       System.RegCloseKey
 0001:000084A8       System.RegisterModule
 0001:00001544       System.RegOpenKeyEx
 0001:0000154C       System.RegQueryValueEx
 0003:0000076C       System.reMap
 0001:0000195C       System.RemoveMediumFreeBlock
 0001:000083C0       System.RemoveModuleUnloadProc
 0001:000083E8       System.RemoveModuleUnloadProc
 0004:000008DC       System.ReportMemoryLeaksOnShutdown
 0001:00008090       System.ResouceDLLExists
 0001:00001464       System.RtlUnwind
 0004:00000018       System.RTLUnwindProc
 0003:00000790       System.runErrMsg
 0001:00003540       System.RunErrorAt
 0004:00000028       System.SafeCallErrorProc
 0001:00002C3C       System.ScanForMemoryLeaks
 0001:0000637C       System.SetCodePage
 0001:00004B58       System.SetExceptionHandler
 0001:000035C4       System.SetInOutRes
 0001:00003484       System.SetMemoryManager
 0004:00002B50       System.SetThreadPreferredUILanguages
 0001:00008B80       System.SetUtf8CompareLocale
 0001:000015E0       System.Sleep
 0003:00000074       System.SmallBlockTypes
 0003:00000054       System.SmallLeakDetail
 0001:00006A84       System.StringToOleStr
 0001:00002610       System.SysAllocMem
 0001:00001564       System.SysAllocStringLen
 0001:00002100       System.SysFreeMem
 0001:00001574       System.SysFreeString
 0001:00001D7C       System.SysGetMem
 0001:000022F8       System.SysReallocMem
 0001:0000156C       System.SysReAllocStringLen
 0001:000029E4       System.SysRegisterExpectedMemoryLeak
 0002:00000000       System.System
 0001:00002A24       System.SysUnregisterExpectedMemoryLeak
 0004:00000056       System.Test8086
 0001:0000787C       System.ThreadUILanguages
 0001:00008578       System.TInterfacedObject.AfterConstruction
 0001:00008584       System.TInterfacedObject.BeforeDestruction
 0001:00008594       System.TInterfacedObject.NewInstance
 0001:000085A4       System.TInterfacedObject.QueryInterface
 0001:000085CC       System.TInterfacedObject._AddRef
 0001:000085E0       System.TInterfacedObject._Release
 0001:00004438       System.TMonitor.Destroy
 0001:00004420       System.TMonitor.Destroy
 0001:00004464       System.TMonitor.GetFieldAddress
 0001:0000412C       System.TObject.AfterConstruction
 0001:00004130       System.TObject.BeforeDestruction
 0001:00004104       System.TObject.ClassInfo
 0001:00003D40       System.TObject.ClassName
 0001:00003D58       System.TObject.ClassNameIs
 0001:00003DF4       System.TObject.ClassParent
 0001:00003D38       System.TObject.ClassType
 0001:00003ECC       System.TObject.CleanupInstance
 0001:00003E38       System.TObject.Create
 0001:00004128       System.TObject.DefaultHandler
 0001:00003E58       System.TObject.Destroy
 0001:00004134       System.TObject.Dispatch
 0001:00003F24       System.TObject.Equals
 0001:00004340       System.TObject.FieldAddress
 0001:000042CC       System.TObject.FieldAddress
 0001:00003E68       System.TObject.Free
 0001:00003E1C       System.TObject.FreeInstance
 0001:00003F2C       System.TObject.GetHashCode
 0001:00003F30       System.TObject.GetInterface
 0001:00004000       System.TObject.GetInterfaceEntry
 0001:00004044       System.TObject.GetInterfaceTable
 0001:000040F0       System.TObject.InheritsFrom
 0001:00003E74       System.TObject.InitInstance
 0001:00003E30       System.TObject.InstanceSize
 0001:00004258       System.TObject.MethodAddress
 0001:000041E8       System.TObject.MethodAddress
 0001:00004280       System.TObject.MethodName
 0001:00003E00       System.TObject.NewInstance
 0001:0000410C       System.TObject.SafeCallException
 0001:00004114       System.TObject.ToString
 0001:0000404C       System.TObject.UnitName
 0001:00007B28       System.ToLongPath
 0001:0000146C       System.UnhandledExceptionFilter
 0003:00000068       System.UnicodeStringBlockMessage
 0001:00008608       System.UnicodeToUtf8
 0001:000054E8       System.UniqueString
 0001:000062DC       System.UniqueString
 0003:00000060       System.UnknownClassNameMsg
 0001:000084B8       System.UnregisterModule
 0001:00004B78       System.UnsetExceptionHandler
 0004:00002B58       System.UseThreadUILanguageAPI
 0001:0000415C       System.UTF8Compare
 0004:000008D8       System.UTF8CompareLocale
 0001:0000871C       System.UTF8Encode
 0001:0000883C       System.UTF8EncodeToShortString
 0001:000041D4       System.UTF8ShortStringToString
 0001:00008AD0       System.UTF8ToString
 0001:00008AE4       System.UTF8ToString
 0001:00008698       System.Utf8ToUnicode
 0001:000089A0       System.UTF8ToUnicodeString
 0001:00008A3C       System.UTF8ToUnicodeString
 0001:000088C8       System.UTF8ToUnicodeString
 0003:00000014       System.VarAddRefProc
 0003:00000010       System.VarClearProc
 0003:00000018       System.VarCopyProc
 0003:0000001C       System.VarToLStrProc
 0003:00000020       System.VarToWStrProc
 0001:000015D0       System.VirtualAlloc
 0001:000015D8       System.VirtualFree
 0001:0000155C       System.VirtualQuery
 0001:00005258       System.WCharFromChar
 0001:00006A40       System.WideCharLenToString
 0001:00006A54       System.WideCharLenToStrVar
 0001:00006A48       System.WideCharLenToStrVar
 0001:00001554       System.WideCharToMultiByte
 0001:00004F08       System.WriteErrorMessage
 0001:00001474       System.WriteFile
 0001:00005590       System.WStrError
 0001:000055B0       System.WStrSet
 0004:00004FE8       SysUtils..76
 0001:0000C588       SysUtils..EAbort
 0001:0000D49C       SysUtils..EAbstractError
 0001:0000D0EC       SysUtils..EAccessViolation
 0001:0000D3F8       SysUtils..EAssertionFailed
 0001:0000D2C8       SysUtils..EControlC
 0001:0000D050       SysUtils..EConvertError
 0001:0000CA54       SysUtils..EDivByZero
 0001:0000DFDC       SysUtils..EEncodingError
 0001:0000C860       SysUtils..EExternal
 0001:0000C918       SysUtils..EExternalException
 0001:0000C618       SysUtils..EHeapException
 0001:0000C7A8       SysUtils..EInOutError
 0001:0000C9C0       SysUtils..EIntError
 0001:0000D53C       SysUtils..EIntfCastError
 0001:0000CB84       SysUtils..EIntOverflow
 0001:0000CFB4       SysUtils..EInvalidCast
 0001:0000CCB8       SysUtils..EInvalidOp
 0001:0000CF14       SysUtils..EInvalidPointer
 0001:0000CC20       SysUtils..EMathError
 0001:0000D7D0       SysUtils..EMonitor
 0001:0000D864       SysUtils..EMonitorLockException
 0001:0000D910       SysUtils..ENoMonitorSupportException
 0001:0000D678       SysUtils..EOSError
 0001:0000C70C       SysUtils..EOutOfMemory
 0001:0000CDE8       SysUtils..EOverflow
 0001:0000D5DC       SysUtils..EPackageError
 0001:0000D190       SysUtils..EPrivilege
 0001:0000CAEC       SysUtils..ERangeError
 0001:0000D728       SysUtils..ESafecallException
 0001:0000D228       SysUtils..EStackOverflow
 0001:0000CE7C       SysUtils..EUnderflow
 0001:0000D35C       SysUtils..EVariantError
 0001:0000BFC0       SysUtils..Exception
 0001:0000CD50       SysUtils..EZeroDivide
 0001:0000F1C8       SysUtils..TBigEndianUnicodeEncoding
 0001:0000E07C       SysUtils..TEncoding
 0001:0000EA04       SysUtils..TMBCSEncoding
 0001:0000DCD4       SysUtils..TMultiReadExclusiveWriteSynchronizer
 0001:0000DAB0       SysUtils..TThreadLocalCounter
 0001:0000F008       SysUtils..TUnicodeEncoding
 0001:0000ECC8       SysUtils..TUTF7Encoding
 0001:0000EE48       SysUtils..TUTF8Encoding
 0001:000151E0       SysUtils.AbstractErrorHandler
 0003:00001290       SysUtils.AccessMode
 0001:0000F860       SysUtils.AnsiCompareStr
 0001:0000F92C       SysUtils.AnsiCompareText
 0001:0000FC58       SysUtils.AnsiExtractQuotedStr
 0001:00010714       SysUtils.AnsiLastChar
 0001:0000F7D0       SysUtils.AnsiLowerCase
 0001:0001600C       SysUtils.AnsiPos
 0001:0000FAB8       SysUtils.AnsiQuotedStr
 0001:000160EC       SysUtils.AnsiStrPos
 0001:000160F4       SysUtils.AnsiStrRScan
 0001:000160FC       SysUtils.AnsiStrScan
 0001:0000F740       SysUtils.AnsiUpperCase
 0001:00012370       SysUtils.AppendChars
 0001:000127D8       SysUtils.AppendFormat
 0001:00012428       SysUtils.AppendNumber
 0001:000123B4       SysUtils.AppendString
 0001:000151C4       SysUtils.AssertErrorHandler
 0001:00010B24       SysUtils.BackfillGetDiskFreeSpaceEx
 0001:00010474       SysUtils.BoolToStr
 0001:00015B54       SysUtils.ByteToCharIndex
 0001:00015A6C       SysUtils.ByteToCharLen
 0001:000159A4       SysUtils.ByteType
 0001:00015930       SysUtils.ByteTypeTest
 0001:0001088C       SysUtils.ChangeFileExt
 0001:00015EDC       SysUtils.CharLength
 0001:00015D5C       SysUtils.CharToByteIndex
 0001:00015E74       SysUtils.CharToByteLen
 0001:00015C7C       SysUtils.CharToElementIndex
 0001:00015D64       SysUtils.CharToElementLen
 0001:00015910       SysUtils.CheckWin32Version
 0001:0001583C       SysUtils.CleanEventList
 0001:0001580C       SysUtils.CleanStack
 0001:00017398       SysUtils.ClearHashTables
 0001:0000F58C       SysUtils.CompareMem
 0001:0000F4CC       SysUtils.CompareStr
 0001:0000F620       SysUtils.CompareText
 0001:0001037C       SysUtils.CompareWith
 0001:00017578       SysUtils.ContainsPreamble
 0001:00014458       SysUtils.ConvertAddr
 0001:00012520       SysUtils.ConvertEraString
 0001:0000F2F0       SysUtils.ConvertError
 0001:0000F308       SysUtils.ConvertErrorFmt
 0001:000126AC       SysUtils.ConvertYearString
 0001:00015B5C       SysUtils.CountChars
 0001:00015108       SysUtils.CreateAssertException
 0001:00015298       SysUtils.CreateAVObject
 0001:00014EB0       SysUtils.CreateInOutError
 0003:00001288       SysUtils.cSimpleBoolStrs
 0004:00004EC2       SysUtils.CurrencyDecimals
 0004:00004EBC       SysUtils.CurrencyFormat
 0004:00004EB8       SysUtils.CurrencyString
 0001:0001235C       SysUtils.CurrentYear
 0001:00011D70       SysUtils.CurrToStr
 0001:0000FF40       SysUtils.CvtInt
 0001:0001012C       SysUtils.CvtInt64
 0001:00010048       SysUtils.CvtInt64W
 0001:0000FF8C       SysUtils.CvtIntW
 0003:000012DC       SysUtils.CWNear
 0004:00004EC4       SysUtils.DateSeparator
 0001:00012FCC       SysUtils.DateTimeToString
 0001:00011EF0       SysUtils.DateTimeToTimeStamp
 0001:000122E4       SysUtils.DayOfWeek
 0003:000012D8       SysUtils.DCon10
 0004:00004EC0       SysUtils.DecimalSeparator
 0001:000122C4       SysUtils.DecodeDate
 0001:00012178       SysUtils.DecodeDateFully
 0001:00011FE4       SysUtils.DecodeTime
 0003:000014E4       SysUtils.DefaultFallbackLanguages
 0003:0000136C       SysUtils.DefLongDayNames
 0003:00001320       SysUtils.DefLongMonthNames
 0003:00001350       SysUtils.DefShortDayNames
 0003:000012F0       SysUtils.DefShortMonthNames
 0001:0000F2D4       SysUtils.DivMod
 0001:00015600       SysUtils.DoneExceptions
 0001:00015868       SysUtils.DoneMonitorSupport
 0001:00014E54       SysUtils.EHeapException.FreeInstance
 0001:00014E60       SysUtils.EHeapException.RaisingException
 0001:00015A74       SysUtils.ElementToCharIndex
 0001:000159C8       SysUtils.ElementToCharLen
 0003:00001214       SysUtils.EmptyAnsiStr
 0003:0000120C       SysUtils.EmptyStr
 0003:00001210       SysUtils.EmptyWideStr
 0001:00012148       SysUtils.EncodeDate
 0001:00011FA4       SysUtils.EncodeTime
 0001:00014030       SysUtils.EnumEraNames
 0001:0001406C       SysUtils.EnumEraYearOffsets
 0001:00010508       SysUtils.EnumStringModules
 0004:00004F8C       SysUtils.EraNames
 0001:00013498       SysUtils.EraToYear
 0004:00004FA8       SysUtils.EraYearOffsets
 0001:000150B0       SysUtils.ErrorHandler
 0003:00001388       SysUtils.ErrorMap
 0004:000050F4       SysUtils.EventCache
 0004:000050F8       SysUtils.EventItemHolders
 0001:00015560       SysUtils.ExceptHandler
 0004:00004EA8       SysUtils.Exception.$ClassInitFlag
 0004:00004EB4       SysUtils.Exception.CleanUpStackInfoProc
 0001:00014798       SysUtils.Exception.Create
 0002:000000E4       SysUtils.Exception.Create@
 0001:000147D4       SysUtils.Exception.CreateFmt
 0001:00014A78       SysUtils.Exception.CreateFmtHelp
 0001:00014A30       SysUtils.Exception.CreateHelp
 0001:000148CC       SysUtils.Exception.CreateRes
 0001:00014854       SysUtils.Exception.CreateRes
 0001:0001499C       SysUtils.Exception.CreateResFmt
 0001:00014908       SysUtils.Exception.CreateResFmt
 0001:00014C64       SysUtils.Exception.CreateResFmtHelp
 0001:00014BC8       SysUtils.Exception.CreateResFmtHelp
 0001:00014B80       SysUtils.Exception.CreateResHelp
 0001:00014B00       SysUtils.Exception.CreateResHelp
 0001:00014D00       SysUtils.Exception.Destroy
 0001:00015680       SysUtils.Exception.Destroy@
 0001:00014D44       SysUtils.Exception.GetBaseException
 0004:00004EAC       SysUtils.Exception.GetExceptionStackInfoProc
 0004:00004EB0       SysUtils.Exception.GetStackInfoStringProc
 0001:00014D50       SysUtils.Exception.GetStackTrace
 0001:00014D7C       SysUtils.Exception.RaiseOuterException
 0001:00014DA4       SysUtils.Exception.RaisingException
 0001:00014DD0       SysUtils.Exception.SetInnerException
 0001:00014DF8       SysUtils.Exception.SetStackInfo
 0001:00014D90       SysUtils.Exception.ThrowOuterException
 0001:00014DFC       SysUtils.Exception.ToString
 0001:00014464       SysUtils.ExceptionErrorMessage
 0003:0000140C       SysUtils.ExceptMap
 0003:000013C0       SysUtils.ExceptTypes
 0001:00010A90       SysUtils.ExpandFileName
 0001:000109DC       SysUtils.ExtractFileExt
 0001:0001099C       SysUtils.ExtractFileName
 0001:00010960       SysUtils.ExtractFilePath
 0004:00004FC8       SysUtils.FalseBoolStrs
 0003:000012CC       SysUtils.FCon1E18
 0001:00010628       SysUtils.FileCreate
 0001:000105D0       SysUtils.FileOpen
 0001:0001066C       SysUtils.FileRead
 0001:000106C4       SysUtils.FileSeek
 0001:00010698       SysUtils.FileWrite
 0001:000189A0       SysUtils.Finalization
 0001:00010544       SysUtils.FindStringResource
 0001:0001199C       SysUtils.FloatToDecimal
 0001:00011D40       SysUtils.FloatToStr
 0001:00011DA0       SysUtils.FloatToStrF
 0001:0001169C       SysUtils.FloatToText
 0003:000012E0       SysUtils.FMSecsPerDay
 0001:00010FFC       SysUtils.FmtStr
 0001:00010FE8       SysUtils.Format
 0003:000012E8       SysUtils.Format
 0001:00010F88       SysUtils.FormatBuf
 0001:00010F40       SysUtils.FormatError
 0003:000012C4       SysUtils.FormatErrorStrs
 0001:00017248       SysUtils.FreeAndNil
 0001:00015734       SysUtils.FreeSyncObj
 0001:00016D64       SysUtils.FreeTerminateProcs
 0001:0001579C       SysUtils.FreeWaitObj
 0001:00012474       SysUtils.GetCount
 0001:000124A8       SysUtils.GetDate
 0001:000132E8       SysUtils.GetDateOrder
 0003:00001284       SysUtils.GetDiskFreeSpaceEx
 0001:000140E4       SysUtils.GetEraNamesAndYearOffsets
 0001:00013444       SysUtils.GetEraYearOffset
 0001:00015278       SysUtils.GetExceptionClass
 0001:00015464       SysUtils.GetExceptionObject
 0001:00016218       SysUtils.GetFormatSettings
 0001:00013EA0       SysUtils.GetLocaleChar
 0001:00013E54       SysUtils.GetLocaleStr
 0001:000169B0       SysUtils.GetModuleName
 0001:00013F0C       SysUtils.GetMonthDayNames
 0001:00016B3C       SysUtils.GetPackageDescription
 0001:000169E8       SysUtils.GetPackageInfo
 0001:000124E0       SysUtils.GetTime
 0001:000167D8       SysUtils.HashName
 0001:00016744       SysUtils.HashNameMBCS
 0003:00001280       SysUtils.HexDisplayPrefix
 0003:000012E4       SysUtils.IMSecsPerDay
 0001:00016D88       SysUtils.InitDriveSpacePtr
 0001:00015570       SysUtils.InitExceptions
 0001:00016104       SysUtils.InitLeadBytes
 0001:00015800       SysUtils.InitMonitorSupport
 0001:000158A0       SysUtils.InitPlatformId
 0001:00016160       SysUtils.InitSysLocale
 0001:00016E10       SysUtils.InterlockedDecrement
 0001:00016E1C       SysUtils.InterlockedExchange
 0001:00016E24       SysUtils.InterlockedExchangeAdd
 0001:00016E04       SysUtils.InterlockedIncrement
 0001:00010220       SysUtils.IntToHex
 0001:000101F8       SysUtils.IntToStr
 0001:0000FFEC       SysUtils.IntToStr
 0004:00004FF0       SysUtils.InvalidPointer
 0001:0000F32C       SysUtils.IsLeadChar
 0001:00012040       SysUtils.IsLeapYear
 0001:0000FD94       SysUtils.IsValidIdent
 0004:000070E4       SysUtils.LanguageArray
 0001:000107B0       SysUtils.LastDelimiter
 0003:00001260       SysUtils.LeadBytes
 0004:00004F8A       SysUtils.ListSeparator
 0001:000105BC       SysUtils.LoadStr
 0001:00013ECC       SysUtils.LocalGetLocaleStr
 0004:00004ECC       SysUtils.LongDateFormat
 0004:00004F60       SysUtils.LongDayNames
 0004:00004F14       SysUtils.LongMonthNames
 0004:00004EE0       SysUtils.LongTimeFormat
 0001:0000F454       SysUtils.LowerCase
 0001:0000F404       SysUtils.LowerCaseFromAnsiString
 0001:000151F8       SysUtils.MapException
 0001:00016810       SysUtils.ModuleUnloaded
 0003:000014CC       SysUtils.MonitorSupport
 0003:00001230       SysUtils.MonthDays
 0004:00004EBD       SysUtils.NegCurrFormat
 0001:000156D0       SysUtils.NewSyncObj
 0001:0001575C       SysUtils.NewWaitObj
 0001:00015F70       SysUtils.NextCharIndex
 0001:0001230C       SysUtils.Now
 0004:00004FEC       SysUtils.OutOfMemory
 0001:00016928       SysUtils.PackageInfoTable
 0001:000156B0       SysUtils.Pop
 0001:00015690       SysUtils.Push
 0001:00011638       SysUtils.PutExponent
 0001:000151B4       SysUtils.RaiseAssertException
 0001:0001553C       SysUtils.RaiseExceptObject
 0001:00016CB0       SysUtils.RaiseLastOSError
 0001:00016CBC       SysUtils.RaiseLastOSError
 0001:00017314       SysUtils.SafeLoadLibrary
 0001:0000F71C       SysUtils.SameText
 0001:00013028       SysUtils.ScanBlanks
 0001:0001323C       SysUtils.ScanChar
 0001:000134F4       SysUtils.ScanDate
 0001:00013094       SysUtils.ScanNumber
 0001:0001315C       SysUtils.ScanString
 0001:000138AC       SysUtils.ScanTime
 0001:00013380       SysUtils.ScanToNumber
 0003:000012B0       SysUtils.ShareMode
 0003:0000129C       SysUtils.ShareMode
 0004:00004EC8       SysUtils.ShortDateFormat
 0004:00004F44       SysUtils.ShortDayNames
 0004:00004EE4       SysUtils.ShortMonthNames
 0004:00004EDC       SysUtils.ShortTimeFormat
 0001:00014654       SysUtils.ShowException
 0001:000169E0       SysUtils.Sleep
 0001:00015E7C       SysUtils.StrCharLength
 0001:00010BE8       SysUtils.StrEnd
 0001:00010C84       SysUtils.StrIComp
 0001:00010CD4       SysUtils.StrLComp
 0001:00010CFC       SysUtils.StrLComp
 0001:00010C48       SysUtils.StrLCopy
 0001:00010C14       SysUtils.StrLCopy
 0001:00010B98       SysUtils.StrLen
 0001:00010BC8       SysUtils.StrLen
 0001:00010FA4       SysUtils.StrLFmt
 0001:00010D48       SysUtils.StrLIComp
 0001:00010D8C       SysUtils.StrLIComp
 0001:00010C04       SysUtils.StrMove
 0001:00010F14       SysUtils.StrNew
 0001:00015EAC       SysUtils.StrNextChar
 0001:00010E44       SysUtils.StrPos
 0001:00010E9C       SysUtils.StrPosLen
 0001:00010E14       SysUtils.StrRScan
 0001:00010DF8       SysUtils.StrScan
 0001:00010248       SysUtils.StrToInt
 0001:00010284       SysUtils.StrToIntDef
 0001:00017258       SysUtils.Supports
 0001:0001727C       SysUtils.Supports
 0004:00004FF4       SysUtils.SyncEventCache
 0001:00013E04       SysUtils.SysErrorMessage
 0004:00004F7C       SysUtils.SysLocale
 0002:000000F4       SysUtils.SysUtils
 0001:00018578       SysUtils.TBigEndianUnicodeEncoding.GetBytes
 0001:000185AC       SysUtils.TBigEndianUnicodeEncoding.GetChars
 0001:000185E8       SysUtils.TBigEndianUnicodeEncoding.GetPreamble
 0004:00004FE4       SysUtils.TEncoding.$ClassInitFlag
 0001:0001743C       SysUtils.TEncoding.Convert
 0001:000173C8       SysUtils.TEncoding.Convert
 0002:000000DC       SysUtils.TEncoding.Create@
 0001:000174B8       SysUtils.TEncoding.Destroy@
 0004:00004FCC       SysUtils.TEncoding.FASCIIEncoding
 0004:00004FD0       SysUtils.TEncoding.FBigEndianUnicodeEncoding
 0004:00004FD4       SysUtils.TEncoding.FDefaultEncoding
 0001:000174CC       SysUtils.TEncoding.FreeEncodings
 0004:00004FD8       SysUtils.TEncoding.FUnicodeEncoding
 0004:00004FDC       SysUtils.TEncoding.FUTF7Encoding
 0004:00004FE0       SysUtils.TEncoding.FUTF8Encoding
 0001:0001753C       SysUtils.TEncoding.GetBigEndianUnicode
 0001:000175D4       SysUtils.TEncoding.GetBufferEncoding
 0001:000177A4       SysUtils.TEncoding.GetByteCount
 0001:00017828       SysUtils.TEncoding.GetByteCount
 0001:000176DC       SysUtils.TEncoding.GetByteCount
 0001:000176F8       SysUtils.TEncoding.GetByteCount
 0001:00017B84       SysUtils.TEncoding.GetBytes
 0001:00017974       SysUtils.TEncoding.GetBytes
 0001:0001792C       SysUtils.TEncoding.GetBytes
 0001:00017AE0       SysUtils.TEncoding.GetBytes
 0001:00017D28       SysUtils.TEncoding.GetCharCount
 0001:00017D44       SysUtils.TEncoding.GetCharCount
 0001:00017E10       SysUtils.TEncoding.GetChars
 0001:00017F34       SysUtils.TEncoding.GetChars
 0001:00017E34       SysUtils.TEncoding.GetChars
 0001:00018088       SysUtils.TEncoding.GetDefault
 0001:000180C8       SysUtils.TEncoding.GetEncoding
 0001:0000E9EC       SysUtils.TEncoding.GetMaxByteCount
 0001:0000E9F4       SysUtils.TEncoding.GetMaxCharCount
 0001:0000E9FC       SysUtils.TEncoding.GetPreamble
 0001:000180D8       SysUtils.TEncoding.GetString
 0001:000180FC       SysUtils.TEncoding.GetString
 0001:0001816C       SysUtils.TEncoding.GetUnicode
 0001:000181A8       SysUtils.TEncoding.GetUTF8
 0001:000181E4       SysUtils.TEncoding.IsStandardEncoding
 0003:000014E0       SysUtils.TerminateProcList
 0001:00011CDC       SysUtils.TextToFloat
 0001:00011BC8       SysUtils.TextToFloat
 0004:00004EBE       SysUtils.ThousandSeparator
 0004:00004ED4       SysUtils.TimeAMString
 0004:00004ED8       SysUtils.TimePMString
 0004:00004ED0       SysUtils.TimeSeparator
 0001:0001821C       SysUtils.TMBCSEncoding.Create
 0001:000182A4       SysUtils.TMBCSEncoding.Create
 0001:0001825C       SysUtils.TMBCSEncoding.Create
 0001:00018320       SysUtils.TMBCSEncoding.GetByteCount
 0001:00018338       SysUtils.TMBCSEncoding.GetBytes
 0001:0001835C       SysUtils.TMBCSEncoding.GetCharCount
 0001:00018370       SysUtils.TMBCSEncoding.GetChars
 0001:00018390       SysUtils.TMBCSEncoding.GetMaxByteCount
 0001:00018398       SysUtils.TMBCSEncoding.GetMaxCharCount
 0001:0001839C       SysUtils.TMBCSEncoding.GetPreamble
 0001:00017170       SysUtils.TMultiReadExclusiveWriteSynchronizer.BeginRead
 0001:00017074       SysUtils.TMultiReadExclusiveWriteSynchronizer.BeginWrite
 0001:00017030       SysUtils.TMultiReadExclusiveWriteSynchronizer.BlockReaders
 0001:00016F74       SysUtils.TMultiReadExclusiveWriteSynchronizer.Create
 0001:00016FE8       SysUtils.TMultiReadExclusiveWriteSynchronizer.Destroy
 0001:000171E0       SysUtils.TMultiReadExclusiveWriteSynchronizer.EndRead
 0001:00017120       SysUtils.TMultiReadExclusiveWriteSynchronizer.EndWrite
 0001:00017048       SysUtils.TMultiReadExclusiveWriteSynchronizer.UnblockOneWriter
 0001:0001703C       SysUtils.TMultiReadExclusiveWriteSynchronizer.UnblockReaders
 0001:00017054       SysUtils.TMultiReadExclusiveWriteSynchronizer.WaitForReadSignal
 0001:00017064       SysUtils.TMultiReadExclusiveWriteSynchronizer.WaitForWriteSignal
 0001:00014198       SysUtils.TranslateDateFormat
 0001:0000F9F8       SysUtils.Trim
 0004:00004FC4       SysUtils.TrueBoolStrs
 0001:0001207C       SysUtils.TryEncodeDate
 0001:00011F34       SysUtils.TryEncodeTime
 0001:000103CC       SysUtils.TryStrToBool
 0001:00011ED4       SysUtils.TryStrToCurr
 0001:00013AB4       SysUtils.TryStrToDate
 0001:00013BD4       SysUtils.TryStrToDateTime
 0001:00011DD8       SysUtils.TryStrToFloat
 0001:00011DF4       SysUtils.TryStrToFloat
 0001:00011E64       SysUtils.TryStrToFloat
 0001:0001029C       SysUtils.TryStrToInt
 0001:000102BC       SysUtils.TryStrToInt64
 0001:00013B44       SysUtils.TryStrToTime
 0001:00016F18       SysUtils.TThreadLocalCounter.Close
 0001:00016F20       SysUtils.TThreadLocalCounter.Delete
 0001:00016E2C       SysUtils.TThreadLocalCounter.Destroy
 0001:00016E84       SysUtils.TThreadLocalCounter.HashIndex
 0001:00016EA0       SysUtils.TThreadLocalCounter.Open
 0001:00016F30       SysUtils.TThreadLocalCounter.Recycle
 0001:000184BC       SysUtils.TUnicodeEncoding.Create
 0001:000184E8       SysUtils.TUnicodeEncoding.GetByteCount
 0001:000184F0       SysUtils.TUnicodeEncoding.GetBytes
 0001:0001850C       SysUtils.TUnicodeEncoding.GetCharCount
 0001:00018518       SysUtils.TUnicodeEncoding.GetChars
 0001:00018538       SysUtils.TUnicodeEncoding.GetMaxByteCount
 0001:00018540       SysUtils.TUnicodeEncoding.GetMaxCharCount
 0001:00018550       SysUtils.TUnicodeEncoding.GetPreamble
 0001:000183B8       SysUtils.TUTF7Encoding.Create
 0001:000183F4       SysUtils.TUTF7Encoding.GetByteCount
 0001:000183FC       SysUtils.TUTF7Encoding.GetBytes
 0001:00018414       SysUtils.TUTF7Encoding.GetCharCount
 0001:0001841C       SysUtils.TUTF7Encoding.GetChars
 0001:00018434       SysUtils.TUTF7Encoding.GetMaxByteCount
 0001:0001843C       SysUtils.TUTF7Encoding.GetMaxCharCount
 0001:00018440       SysUtils.TUTF8Encoding.Create
 0001:00018480       SysUtils.TUTF8Encoding.GetMaxByteCount
 0001:00018488       SysUtils.TUTF8Encoding.GetMaxCharCount
 0001:0001848C       SysUtils.TUTF8Encoding.GetPreamble
 0003:0000122C       SysUtils.TwoDigitYearCenturyWindow
 0001:0001000C       SysUtils.UIntToStr
 0004:000060F0       SysUtils.UnitHashBuckets
 0001:0000F38C       SysUtils.UpperCase
 0001:0000F33C       SysUtils.UpperCaseFromAnsiString
 0004:000050FC       SysUtils.ValidatedUnitHashBuckets
 0001:000102DC       SysUtils.VerifyBoolStrArray
 0001:000157C8       SysUtils.WaitAndOrSignalObj
 0001:00011238       SysUtils.WideFloatToText
 0001:00011254       SysUtils.WideFormatBuf
 0001:00011194       SysUtils.WideFormatError
 0001:00011214       SysUtils.WideFormatVarToStr
 0001:00010EFC       SysUtils.WideStrAlloc
 0003:00001224       SysUtils.Win32BuildNumber
 0001:00016D54       SysUtils.Win32Check
 0003:00001228       SysUtils.Win32CSDVersion
 0003:0000121C       SysUtils.Win32MajorVersion
 0003:00001220       SysUtils.Win32MinorVersion
 0003:00001218       SysUtils.Win32Platform
 0001:00041C50       TlHelp32.InitToolHelp
 0004:00007200       TlHelp32.KernelHandle
 0001:00042014       TlHelp32.Module32First
 0001:00042034       TlHelp32.Module32Next
 0004:00007204       TlHelp32._CreateToolhelp32Snapshot
 0004:00007210       TlHelp32._Heap32First
 0004:00007208       TlHelp32._Heap32ListFirst
 0004:0000720C       TlHelp32._Heap32ListNext
 0004:00007214       TlHelp32._Heap32Next
 0004:0000723C       TlHelp32._Module32First
 0004:00007244       TlHelp32._Module32FirstA
 0004:0000724C       TlHelp32._Module32FirstW
 0004:00007240       TlHelp32._Module32Next
 0004:00007248       TlHelp32._Module32NextA
 0004:00007250       TlHelp32._Module32NextW
 0004:0000721C       TlHelp32._Process32First
 0004:00007224       TlHelp32._Process32FirstA
 0004:0000722C       TlHelp32._Process32FirstW
 0004:00007220       TlHelp32._Process32Next
 0004:00007228       TlHelp32._Process32NextA
 0004:00007230       TlHelp32._Process32NextW
 0004:00007234       TlHelp32._Thread32First
 0004:00007238       TlHelp32._Thread32Next
 0004:00007218       TlHelp32._Toolhelp32ReadProcessMemory
 0004:00007184       TypInfo..5
 0001:0002203C       TypInfo.AssignLongStr
 0001:00022B74       TypInfo.AssignVariant
 0003:00001654       TypInfo.BooleanIdents
 0003:0000165C       TypInfo.DotSep
 0001:00022DD8       TypInfo.Finalization
 0001:0002223C       TypInfo.GetAnsiStrProp
 0001:000218F0       TypInfo.GetEnumName
 0001:00021A5C       TypInfo.GetEnumNameValue
 0001:00021AD4       TypInfo.GetEnumValue
 0001:00022864       TypInfo.GetFloatProp
 0001:00022C80       TypInfo.GetInt64Prop
 0001:00022CE4       TypInfo.GetInterfaceProp
 0001:00022054       TypInfo.GetLongStrProp
 0001:00022C08       TypInfo.GetMethodProp
 0001:00021D08       TypInfo.GetOrdProp
 0001:00021C30       TypInfo.GetPropInfo
 0001:00021C84       TypInfo.GetPropInfos
 0001:00021894       TypInfo.GetPropName
 0001:00021DD8       TypInfo.GetSetElementName
 0001:00021E6C       TypInfo.GetSetElementValue
 0001:00021F40       TypInfo.GetShortStrProp
 0001:00021FD8       TypInfo.GetShortStrPropAsLongStr
 0001:000218E4       TypInfo.GetTypeData
 0001:000224D4       TypInfo.GetUnicodeStrProp
 0001:00022188       TypInfo.GetUnicodeStrPropAsLongStr
 0001:00022B88       TypInfo.GetVariantProp
 0001:000222C4       TypInfo.GetWideStrProp
 0001:000220D4       TypInfo.GetWideStrPropAsLongStr
 0001:00021B7C       TypInfo.InternalGetPropInfo
 0001:00021CD8       TypInfo.IsStoredProp
 0001:00022288       TypInfo.SetAnsiStrProp
 0001:0002297C       TypInfo.SetFloatProp
 0001:00022CA8       TypInfo.SetInt64Prop
 0001:00022D64       TypInfo.SetInterfaceProp
 0001:00022094       TypInfo.SetLongStrProp
 0001:00022C48       TypInfo.SetMethodProp
 0001:00021D7C       TypInfo.SetOrdProp
 0001:000225EC       TypInfo.SetRawByteStrProp
 0001:00021F84       TypInfo.SetShortStrProp
 0001:00022008       TypInfo.SetShortStrPropAsLongStr
 0001:00022740       TypInfo.SetUnicodeStrProp
 0001:000221E4       TypInfo.SetUnicodeStrPropAsLongStr
 0001:00022BC8       TypInfo.SetVariantProp
 0001:000223D8       TypInfo.SetWideStrProp
 0001:00022130       TypInfo.SetWideStrPropAsLongStr
 0002:0000024C       TypInfo.TypInfo
 0001:000219E8       TypInfo.UTF8SameText
 0004:00007164       Variants..81
 0001:00019F08       Variants..EVariantArrayCreateError
 0001:00019E54       Variants..EVariantArrayLockedError
 0001:00019DA8       Variants..EVariantBadIndexError
 0001:00019CF8       Variants..EVariantBadVarTypeError
 0001:0001A1CC       Variants..EVariantDispatchError
 0001:00019C48       Variants..EVariantInvalidArgError
 0001:0001A278       Variants..EVariantInvalidNullOpError
 0001:00019A40       Variants..EVariantInvalidOpError
 0001:00019FBC       Variants..EVariantNotImplError
 0001:0001A068       Variants..EVariantOutOfMemoryError
 0001:00019B9C       Variants..EVariantOverflowError
 0001:00019AF0       Variants..EVariantTypeCastError
 0001:0001A11C       Variants..EVariantUnexpectedError
 0001:00019530       Variants..TCustomVariantType
 0001:0001A8D0       Variants.@DispInvokeError
 0001:000208AC       Variants.@VarAddRef
 0001:0001B254       Variants.@VarCast
 0001:0001ABD4       Variants.@VarClear
 0001:0001ABE8       Variants.@VarClr
 0001:00021594       Variants.@VarCmpEQ
 0001:0001AF3C       Variants.@VarCopy
 0001:0001FDA4       Variants.@VarFromBool
 0001:0001FC04       Variants.@VarFromByte
 0001:0001FDF4       Variants.@VarFromCurr
 0001:0001FD4C       Variants.@VarFromCurrency
 0001:0001FD78       Variants.@VarFromDate
 0001:0001FEC4       Variants.@VarFromDisp
 0001:0001FD20       Variants.@VarFromDouble
 0001:0001FBA8       Variants.@VarFromInt
 0001:0001FCD0       Variants.@VarFromInt64
 0001:0001FBE4       Variants.@VarFromInteger
 0001:0001FE98       Variants.@VarFromIntf
 0001:0001FC44       Variants.@VarFromLongWord
 0001:0001FE08       Variants.@VarFromLStr
 0001:0001FDCC       Variants.@VarFromReal
 0001:0001FC90       Variants.@VarFromShortInt
 0001:0001FCFC       Variants.@VarFromSingle
 0001:0001FCB0       Variants.@VarFromSmallInt
 0001:0001FDE0       Variants.@VarFromTDateTime
 0001:0001FC64       Variants.@VarFromUInt64
 0001:0001FE6C       Variants.@VarFromUStr
 0001:0001FC24       Variants.@VarFromWord
 0001:0001FE34       Variants.@VarFromWStr
 0001:0001A924       Variants.@VarNull
 0001:0001CCBC       Variants.@VarToBool
 0001:0001C920       Variants.@VarToBoolean
 0001:0001BBA4       Variants.@VarToByte
 0001:0001DC9C       Variants.@VarToCurrency
 0001:0001D6A0       Variants.@VarToDate
 0001:0001FAFC       Variants.@VarToDisp
 0001:0001CE88       Variants.@VarToDouble
 0001:0001C178       Variants.@VarToInt64
 0001:0001B640       Variants.@VarToInteger
 0001:0001FA30       Variants.@VarToIntf
 0001:0001BE28       Variants.@VarToLongWord
 0001:0001E3D4       Variants.@VarToLStr
 0001:0001D278       Variants.@VarToReal
 0001:0001BAF0       Variants.@VarToShortInt
 0001:0001D294       Variants.@VarToSingle
 0001:0001BC50       Variants.@VarToSmallInt
 0001:0001C608       Variants.@VarToUInt64
 0001:0001F3B0       Variants.@VarToUStr
 0001:0001BD4C       Variants.@VarToWord
 0001:0001EC88       Variants.@VarToWStr
 0001:0001F9B8       Variants.AnyToIntf
 0003:00001518       Variants.BaseTypeMap
 0003:00001514       Variants.BooleanToStringRule
 0001:0001E168       Variants.BoolToWStrViaOS
 0003:00001548       Variants.CBooleanToRelationship
 0004:0000715C       Variants.ChangeAnyProc
 0001:0001FEF0       Variants.CheckType
 0003:00001530       Variants.CInvalidCustomVariantType
 0004:00007158       Variants.ClearAnyProc
 0001:00020E98       Variants.ClearVariantTypeList
 0003:00001554       Variants.CmpTypeMap
 0003:00001534       Variants.CRangeToType
 0003:00001640       Variants.CRelationshipToBoolean
 0003:000015E4       Variants.CText
 0001:000201D8       Variants.CurrCompare
 0001:0001E0F8       Variants.CurrToWStrViaOS
 0001:000201AC       Variants.DateCompare
 0001:0001E130       Variants.DateToWStrViaOS
 0001:0001FFF4       Variants.EmptyCompare
 0004:00007144       Variants.EmptyParam
 0001:000215A4       Variants.Finalization
 0001:000213FC       Variants.FindCustomVariantType
 0001:000214B8       Variants.FindCustomVariantType
 0001:00020CDC       Variants.FindVarData
 0001:00020DFC       Variants.GetVarDataArrayInfo
 0001:0001A84C       Variants.HandleConversionException
 0001:0001A938       Variants.InBounds
 0001:0001ABF0       Variants.InBounds
 0001:0001A968       Variants.Increment
 0001:0001AC20       Variants.Increment
 0001:00020110       Variants.Int64Compare
 0001:000200FC       Variants.IntCompare
 0003:0000163C       Variants.LNextVarType
 0004:00007168       Variants.LVarTypes
 0004:0000716C       Variants.LVarTypeSync
 0001:0002158C       Variants.Null
 0003:0000150C       Variants.NullAsStringValue
 0001:00020008       Variants.NullCompare
 0003:00001500       Variants.NullEqualityRule
 0003:00001504       Variants.NullMagnitudeRule
 0003:00001508       Variants.NullStrictConvert
 0003:00001510       Variants.PackVarCreation
 0001:00020180       Variants.RealCompare
 0004:00007160       Variants.RefAnyProc
 0001:00020DF0       Variants.SetClearVarToEmptyParam
 0001:00020DD8       Variants.SetVarAsError
 0001:00020208       Variants.StringCompare
 0001:00020F04       Variants.TCustomVariantType.BinaryOp
 0001:00020F10       Variants.TCustomVariantType.Cast
 0001:00020F48       Variants.TCustomVariantType.CastTo
 0001:00020FD4       Variants.TCustomVariantType.CastToOle
 0001:00019A30       Variants.TCustomVariantType.Clear
 0001:00020F90       Variants.TCustomVariantType.Compare
 0001:00020F9C       Variants.TCustomVariantType.CompareOp
 0001:00019A38       Variants.TCustomVariantType.Copy
 0001:00021054       Variants.TCustomVariantType.Create
 0001:00021010       Variants.TCustomVariantType.Create
 0001:000212D0       Variants.TCustomVariantType.Destroy
 0001:000213B0       Variants.TCustomVariantType.DispInvoke
 0001:0002135C       Variants.TCustomVariantType.IsClear
 0001:00021360       Variants.TCustomVariantType.LeftPromotion
 0001:00021374       Variants.TCustomVariantType.OlePromotion
 0001:000213D4       Variants.TCustomVariantType.QueryInterface
 0001:0002137C       Variants.TCustomVariantType.RaiseCastError
 0001:0002138C       Variants.TCustomVariantType.RaiseDispError
 0001:00021384       Variants.TCustomVariantType.RaiseInvalidOp
 0001:00021394       Variants.TCustomVariantType.RightPromotion
 0001:000213A8       Variants.TCustomVariantType.UnaryOp
 0001:000213BC       Variants.TCustomVariantType._AddRef
 0001:000213C8       Variants.TCustomVariantType._Release
 0001:0001A5B8       Variants.TranslateResult
 0001:0002014C       Variants.UInt64Compare
 0001:0001A9C4       Variants.VarArrayClear
 0001:0001AC7C       Variants.VarArrayCopyForEach
 0001:0001A564       Variants.VarArrayCreateError
 0001:0001AF80       Variants.VarCastAsAny
 0001:0001B0D0       Variants.VarCastAsDispatch
 0001:0001B11C       Variants.VarCastAsInterface
 0001:0001AFEC       Variants.VarCastAsOleStr
 0001:0001B038       Variants.VarCastAsString
 0001:0001B084       Variants.VarCastAsUString
 0001:0001A330       Variants.VarCastError
 0001:0001A384       Variants.VarCastError
 0001:0001B1E8       Variants.VarCastRare
 0001:0001B168       Variants.VarCastViaOS
 0001:0001AB40       Variants.VarClearDeep
 0001:00020844       Variants.VarCompare
 0001:0001FF1C       Variants.VarCompareAny
 0001:00020420       Variants.VarCompareRare
 0001:00020274       Variants.VarCompareSimple
 0001:0001AE48       Variants.VarCopyCopyProc
 0001:0001AE50       Variants.VarCopyDeep
 0004:00007154       Variants.VarDispProc
 0002:000001A0       Variants.Variants
 0001:0001A474       Variants.VarInvalidNullOp
 0001:0001A420       Variants.VarInvalidOp
 0001:00020E40       Variants.VarIsArray
 0001:00020E48       Variants.VarIsArray
 0001:00020CEC       Variants.VarIsClear
 0001:0001A4C8       Variants.VarOverflowError
 0001:0001A818       Variants.VarResultCheck
 0001:0001A80C       Variants.VarResultCheck
 0001:00020D60       Variants.VarSameValue
 0001:0001C870       Variants.VarToBoolAny
 0001:0001C76C       Variants.VarToBoolAsString
 0001:0001C8D4       Variants.VarToBoolCustom
 0001:0001C830       Variants.VarToBoolViaOS
 0001:0001DBEC       Variants.VarToCurrencyAny
 0001:0001DB40       Variants.VarToCurrencyAsDouble
 0001:0001DA84       Variants.VarToCurrencyAsString
 0001:0001DC50       Variants.VarToCurrencyCustom
 0001:0001DBA0       Variants.VarToCurrencyViaOS
 0001:0001D5F0       Variants.VarToDateAny
 0001:0001D544       Variants.VarToDateAsDouble
 0001:0001D458       Variants.VarToDateAsString
 0001:0001D654       Variants.VarToDateCustom
 0001:0001D5A4       Variants.VarToDateViaOS
 0001:0001CDD8       Variants.VarToDoubleAny
 0001:0001CCC8       Variants.VarToDoubleAsString
 0001:0001CE3C       Variants.VarToDoubleCustom
 0001:0001CD8C       Variants.VarToDoubleViaOS
 0001:0001C0C0       Variants.VarToInt64Any
 0001:0001BFC0       Variants.VarToInt64AsString
 0001:0001C12C       Variants.VarToInt64Custom
 0001:0001BF14       Variants.VarToInt64ViaOS
 0001:0001B598       Variants.VarToIntAny
 0001:0001B4A8       Variants.VarToIntAsString
 0001:0001B5FC       Variants.VarToIntCustom
 0001:0001B55C       Variants.VarToIntViaOS
 0001:0001E2E8       Variants.VarToLStrAny
 0001:0001E34C       Variants.VarToLStrCustom
 0001:0001E230       Variants.VarToLStrViaOS
 0001:0001F284       Variants.VarToUStrAny
 0001:0001F2E8       Variants.VarToUStrCustom
 0001:0001EB48       Variants.VarToWStrAny
 0001:0001EBAC       Variants.VarToWStrCustom
 0001:0001EA7C       Variants.VarToWStrViaOS
 0001:00020B28       Variants.VarTypeAsText
 0004:00007140       VarUtils..5
 0001:00018F4C       VarUtils.BackupVarBoolFromStr
 0001:000190B0       VarUtils.BackupVarBStrFromBool
 0001:00018FCC       VarUtils.BackupVarBStrFromCy
 0001:0001903C       VarUtils.BackupVarBStrFromDate
 0001:00018EE0       VarUtils.BackupVarCyFromStr
 0001:00018E74       VarUtils.BackupVarDateFromStr
 0001:00018D30       VarUtils.BackupVarI4FromStr
 0001:00018CDC       VarUtils.BackupVariantChangeTypeEx
 0001:00018D9C       VarUtils.BackupVarR4FromStr
 0001:00018E08       VarUtils.BackupVarR8FromStr
 0001:00018D18       VarUtils.BiUnimplemented
 0001:00018D24       VarUtils.CmpUnimplemented
 0003:000014F8       VarUtils.CResult
 0001:00019488       VarUtils.Finalization
 0001:00019144       VarUtils.FindProc
 0001:00019170       VarUtils.InitializeVarUtils
 0001:00019124       VarUtils.SafeArrayCreate
 0001:0001912C       VarUtils.SafeArrayGetLBound
 0001:00019134       VarUtils.SafeArrayGetUBound
 0001:0001913C       VarUtils.SafeArrayPtrOfIndex
 0001:00018D0C       VarUtils.UniUnimplemented
 0004:000070F4       VarUtils.VarAdd
 0004:0000710C       VarUtils.VarAnd
 0004:00007130       VarUtils.VarBoolFromStr
 0004:0000713C       VarUtils.VarBstrFromBool
 0004:00007134       VarUtils.VarBstrFromCy
 0004:00007138       VarUtils.VarBstrFromDate
 0004:00007118       VarUtils.VarCmp
 0004:0000712C       VarUtils.VarCyFromStr
 0004:00007128       VarUtils.VarDateFromStr
 0004:00007100       VarUtils.VarDiv
 0004:0000711C       VarUtils.VarI4FromStr
 0001:00018CD4       VarUtils.VariantChangeType
 0004:000070E8       VarUtils.VariantChangeTypeEx
 0001:00018CC4       VarUtils.VariantClear
 0001:00018CCC       VarUtils.VariantCopy
 0001:00018CBC       VarUtils.VariantInit
 0004:00007104       VarUtils.VarIDiv
 0004:00007108       VarUtils.VarMod
 0004:000070FC       VarUtils.VarMul
 0004:000070EC       VarUtils.VarNeg
 0004:000070F0       VarUtils.VarNot
 0004:00007110       VarUtils.VarOr
 0004:00007120       VarUtils.VarR4FromStr
 0004:00007124       VarUtils.VarR8FromStr
 0004:000070F8       VarUtils.VarSub
 0002:00000190       VarUtils.VarUtils
 0004:00007114       VarUtils.VarXor
 0004:00002C4C       Windows..2
 0001:0000A130       Windows.CharLowerBuff
 0001:0000A138       Windows.CharLowerBuffA
 0001:0000A140       Windows.CharNext
 0001:0000A148       Windows.CharUpperBuff
 0001:0000A150       Windows.CharUpperBuffA
 0001:00009DF4       Windows.CloseHandle
 0001:00009DFC       Windows.CompareString
 0001:00009E04       Windows.CompareStringA
 0001:00009E0C       Windows.CompareStringW
 0001:00009E14       Windows.CreateEvent
 0001:00009E1C       Windows.CreateFile
 0001:00009E24       Windows.CreateFileMapping
 0001:00009E2C       Windows.DeleteCriticalSection
 0001:00009E34       Windows.EnterCriticalSection
 0001:00009E3C       Windows.EnumCalendarInfo
 0001:00009E44       Windows.ExpandEnvironmentStrings
 0001:00009E4C       Windows.FileTimeToLocalFileTime
 0001:0000A1BC       Windows.Finalization
 0001:00009E54       Windows.FindResource
 0001:00009E5C       Windows.FormatMessage
 0001:00009E64       Windows.FreeLibrary
 0001:00009E9C       Windows.FreeResource
 0001:00009EA4       Windows.GetACP
 0001:00009EAC       Windows.GetCPInfo
 0001:00009EB4       Windows.GetCurrentDirectory
 0001:00009EBC       Windows.GetCurrentProcess
 0001:00009EC4       Windows.GetCurrentProcessId
 0001:00009ECC       Windows.GetCurrentThreadId
 0001:00009ED4       Windows.GetDateFormat
 0001:00009EDC       Windows.GetDiskFreeSpace
 0001:00009EE4       Windows.GetEnvironmentVariable
 0001:00009EEC       Windows.GetFileAttributes
 0001:00009EF4       Windows.GetFileAttributesEx
 0001:00009EFC       Windows.GetFileSize
 0001:0000A118       Windows.GetFileVersionInfo
 0001:0000A120       Windows.GetFileVersionInfoSize
 0001:00009F04       Windows.GetFullPathName
 0001:00009F0C       Windows.GetLastError
 0001:00009F1C       Windows.GetLocaleInfo
 0001:00009F14       Windows.GetLocalTime
 0001:00009F24       Windows.GetModuleFileName
 0001:00009F2C       Windows.GetModuleFileNameA
 0001:00009F34       Windows.GetModuleHandle
 0001:00009F3C       Windows.GetProcAddress
 0001:00009F44       Windows.GetProcAddress
 0001:00009FB8       Windows.GetStdHandle
 0001:00009FC0       Windows.GetStringTypeEx
 0001:00009FC8       Windows.GetStringTypeExA
 0001:00009FD0       Windows.GetSystemInfo
 0001:0000A158       Windows.GetSystemMetrics
 0001:00009FD8       Windows.GetThreadLocale
 0001:00009FE0       Windows.GetVersionEx
 0001:0000A160       Windows.GetWindowThreadProcessId
 0004:00002C50       Windows.HtmlHelpModule
 0001:00009FE8       Windows.InitializeCriticalSection
 0001:0000A180       Windows.InitVersionInfo
 0001:00009E6C       Windows.InterlockedCompareExchange
 0001:00009E74       Windows.InterlockedCompareExchangePointer
 0001:00009E8C       Windows.InterlockedExchange
 0001:00009E94       Windows.InterlockedExchangeAdd
 0001:00009FF0       Windows.IsBadReadPtr
 0001:00009FF8       Windows.LeaveCriticalSection
 0001:0000A000       Windows.LoadLibrary
 0001:0000A008       Windows.LoadLibraryEx
 0001:0000A010       Windows.LoadResource
 0001:0000A168       Windows.LoadString
 0001:0000A018       Windows.LockResource
 0001:0000A108       Windows.lstrlenA
 0001:0000A110       Windows.lstrlenW
 0001:0000A020       Windows.MapViewOfFile
 0001:0000A170       Windows.MessageBox
 0001:0000A178       Windows.MessageBoxA
 0001:0000A028       Windows.MultiByteToWideChar
 0001:0000A030       Windows.OpenFileMapping
 0001:0000A038       Windows.OpenMutex
 0001:0000A040       Windows.OpenProcess
 0001:0000A048       Windows.ReadFile
 0001:0000A050       Windows.ReleaseMutex
 0001:0000A058       Windows.ResetEvent
 0001:0000A060       Windows.SearchPath
 0001:0000A068       Windows.SetEndOfFile
 0001:0000A070       Windows.SetErrorMode
 0001:0000A078       Windows.SetEvent
 0001:0000A080       Windows.SetFilePointer
 0001:0000A088       Windows.SetLastError
 0001:0000A090       Windows.SignalObjectAndWait
 0001:0000A098       Windows.SizeofResource
 0001:0000A0A0       Windows.Sleep
 0001:0000A0A8       Windows.SwitchToThread
 0001:0000A0B0       Windows.TryEnterCriticalSection
 0001:0000A0B8       Windows.UnmapViewOfFile
 0001:0000A0C0       Windows.VerLanguageName
 0001:0000A128       Windows.VerQueryValue
 0001:0000A0C8       Windows.VirtualAlloc
 0001:0000A0D0       Windows.VirtualFree
 0001:0000A0D8       Windows.VirtualQuery
 0001:0000A0E0       Windows.VirtualQueryEx
 0001:0000A0E8       Windows.WaitForSingleObject
 0001:0000A0F0       Windows.WaitForSingleObjectEx
 0001:0000A0F8       Windows.WideCharToMultiByte
 0003:00000A1C       Windows.Win32MajorVersion
 0003:00000A20       Windows.Win32MinorVersion
 0003:00000A24       Windows.Win32Platform
 0002:000000AC       Windows.Windows
 0001:0000A100       Windows.WriteFile


  Address             Publics by Value

 0001:0000046C       System..TObject
 0001:00000CD4       System..TInterfacedObject
 0001:00001414       System.InterlockedIncrement
 0001:00001420       System.InterlockedDecrement
 0001:0000142C       System.CloseHandle
 0001:00001434       System.InitializeCriticalSection
 0001:0000143C       System.EnterCriticalSection
 0001:00001444       System.LeaveCriticalSection
 0001:0000144C       System.DeleteCriticalSection
 0001:00001454       System.GetStdHandle
 0001:0000145C       System.RaiseException
 0001:00001464       System.RtlUnwind
 0001:0000146C       System.UnhandledExceptionFilter
 0001:00001474       System.WriteFile
 0001:0000147C       System.CharNext
 0001:00001484       System.CompareStringW
 0001:0000148C       System.CompareString
 0001:00001494       System.ExitProcess
 0001:0000149C       System.MessageBoxA
 0001:000014A4       System.FindClose
 0001:000014AC       System.FindFirstFile
 0001:000014B4       System.FreeLibrary
 0001:000014BC       System.GetCommandLine
 0001:000014C4       System.GetLastError
 0001:000014CC       System.GetLocaleInfo
 0001:000014D4       System.GetUserDefaultUILanguage
 0001:000014DC       System.GetModuleFileName
 0001:000014E4       System.GetModuleHandle
 0001:000014EC       System.GetProcAddress
 0001:000014F4       System.GetStartupInfo
 0001:000014FC       System.GetSystemDefaultUILanguage
 0001:00001504       System.IsValidLocale
 0001:0000150C       System.LoadLibraryEx
 0001:00001514       System.LoadString
 0001:0000151C       System.lstrcpyn
 0001:00001524       System.@strlenA
 0001:0000152C       System.@strlen
 0001:00001534       System.MultiByteToWideChar
 0001:0000153C       System.RegCloseKey
 0001:00001544       System.RegOpenKeyEx
 0001:0000154C       System.RegQueryValueEx
 0001:00001554       System.WideCharToMultiByte
 0001:0000155C       System.VirtualQuery
 0001:00001564       System.SysAllocStringLen
 0001:0000156C       System.SysReAllocStringLen
 0001:00001574       System.SysFreeString
 0001:0000157C       System.GetCurrentThreadId
 0001:00001584       System.GetVersion
 0001:0000158C       System.QueryPerformanceCounter
 0001:00001594       System.GetTickCount
 0001:0000159C       System.GetSystemInfo
 0001:000015A4       System.GetCmdShow
 0001:000015D0       System.VirtualAlloc
 0001:000015D8       System.VirtualFree
 0001:000015E0       System.Sleep
 0001:00001730       System.LockCmpxchg
 0001:00001738       System.Move12
 0001:0000174C       System.Move20
 0001:0000176C       System.Move28
 0001:00001798       System.Move36
 0001:000017B8       System.Move44
 0001:000017DC       System.Move52
 0001:00001808       System.Move60
 0001:00001838       System.Move68
 0001:00001870       System.MoveX16L4
 0001:000018A0       System.MoveX8L4
 0001:000018BC       System.LockAllSmallBlockTypes
 0001:00001914       System.LockMediumBlocks
 0001:0000195C       System.RemoveMediumFreeBlock
 0001:0000199C       System.InsertMediumBlockIntoBin
 0001:000019FC       System.BinMediumSequentialFeedRemainder
 0001:00001A68       System.AllocNewSequentialFeedMediumPool
 0001:00001AE0       System.LockLargeBlocks
 0001:00001B28       System.AllocateLargeBlock
 0001:00001B8C       System.FreeLargeBlock
 0001:00001C30       System.ReallocateLargeBlock
 0001:00001D7C       System.SysGetMem
 0001:00002100       System.SysFreeMem
 0001:000022F8       System.SysReallocMem
 0001:00002610       System.SysAllocMem
 0001:00002644       System.NextMediumBlock
 0001:00002668       System.GetFirstMediumBlockInPool
 0001:000026A8       System.GetFirstAndLastSmallBlockInPool
 0001:000026E4       System.CardinalToStrBuf
 0001:00002800       System.AppendStringToBuffer
 0001:00002818       System.AppendClassNameToBuffer
 0001:0000284C       System.IsValidVMTAddress
 0001:000028C8       System.InternalIsValidClass
 0001:00002948       System.GetObjectClass
 0001:00002970       System.LockExpectedMemoryLeaksList
 0001:000029E4       System.SysRegisterExpectedMemoryLeak
 0001:00002A24       System.SysUnregisterExpectedMemoryLeak
 0001:00002A7C       System.CheckSmallBlockPoolForLeaks
 0001:00002C3C       System.ScanForMemoryLeaks
 0001:00003020       System.GetHeapStatus
 0001:00003184       System.BuildBlockTypeLookupTable
 0001:000031C8       System.InitializeMemoryManager
 0001:000032F0       System.FreeAllMemory
 0001:00003380       System.FinalizeMemoryManager
 0001:000033D4       System.AllocMem
 0001:000033EC       System.@GetMem
 0001:00003408       System.@FreeMem
 0001:00003420       System.@ReallocMem
 0001:00003470       System.GetMemoryManager
 0001:00003484       System.SetMemoryManager
 0001:00003498       System.IsMemoryManagerSet
 0001:000034E0       System.ExceptObject
 0001:00003500       System.AcquireExceptionObject
 0001:00003534       System.RaiseList
 0001:00003540       System.RunErrorAt
 0001:0000354C       System.ErrorAt
 0001:00003598       System.Error
 0001:000035A4       System.@_IOTest
 0001:000035C4       System.SetInOutRes
 0001:000035D4       System.IOResult
 0001:000035F4       System.Move
 0001:000036F4       System.Randomize
 0001:0000371C       System.@ROUND
 0001:00003728       System.@AbstractError
 0001:00003744       System.InternalFlush
 0001:0000378C       System.Flush
 0001:00003798       System.@Close
 0001:000037F0       System.@AStrCmp
 0001:00003860       System.@FillChar
 0001:000038FC       System.@ValLong
 0001:00003A00       System.@SetElem
 0001:00003A24       System.@SetUnion
 0001:00003A30       System.FPower10
 0001:00003A38       System.@Pow10
 0001:00003D1C       System.@FpuInit
 0001:00003D28       System.@BoundErr
 0001:00003D30       System.@IntOver
 0001:00003D38       System.TObject.ClassType
 0001:00003D40       System.TObject.ClassName
 0001:00003D58       System.TObject.ClassNameIs
 0001:00003DF4       System.TObject.ClassParent
 0001:00003E00       System.TObject.NewInstance
 0001:00003E1C       System.TObject.FreeInstance
 0001:00003E30       System.TObject.InstanceSize
 0001:00003E38       System.TObject.Create
 0001:00003E58       System.TObject.Destroy
 0001:00003E68       System.TObject.Free
 0001:00003E74       System.TObject.InitInstance
 0001:00003ECC       System.TObject.CleanupInstance
 0001:00003EF4       System.InvokeImplGetter
 0001:00003F24       System.TObject.Equals
 0001:00003F2C       System.TObject.GetHashCode
 0001:00003F30       System.TObject.GetInterface
 0001:00004000       System.TObject.GetInterfaceEntry
 0001:00004044       System.TObject.GetInterfaceTable
 0001:0000404C       System.TObject.UnitName
 0001:00004084       System.@IsClass
 0001:000040A8       System.FindDynaMethod
 0001:000040D8       System.@CallDynaInst
 0001:000040F0       System.TObject.InheritsFrom
 0001:00004104       System.TObject.ClassInfo
 0001:0000410C       System.TObject.SafeCallException
 0001:00004114       System.TObject.ToString
 0001:00004128       System.TObject.DefaultHandler
 0001:0000412C       System.TObject.AfterConstruction
 0001:00004130       System.TObject.BeforeDestruction
 0001:00004134       System.TObject.Dispatch
 0001:0000415C       System.UTF8Compare
 0001:000041D4       System.UTF8ShortStringToString
 0001:000041E8       System.TObject.MethodAddress
 0001:00004258       System.TObject.MethodAddress
 0001:00004280       System.TObject.MethodName
 0001:000042CC       System.TObject.FieldAddress
 0001:00004340       System.TObject.FieldAddress
 0001:00004368       System.@ClassCreate
 0001:000043B8       System.@ClassDestroy
 0001:000043C0       System.@AfterConstruction
 0001:00004410       System.@BeforeDestruction
 0001:00004420       System.TMonitor.Destroy
 0001:00004438       System.TMonitor.Destroy
 0001:00004464       System.TMonitor.GetFieldAddress
 0001:00004474       System.NotifyReRaise
 0001:00004490       System.NotifyNonDelphiException
 0001:000044B4       System.NotifyExcept
 0001:000044CC       System.NotifyOnExcept
 0001:000044E0       System.NotifyAnyExcept
 0001:000044F4       System.CheckJmp
 0001:00004514       System.NotifyExceptFinally
 0001:0000453C       System.NotifyTerminate
 0001:00004558       System.NotifyUnhandled
 0001:00004578       System.@HandleAnyException
 0001:000046A4       System.@HandleOnException
 0001:0000482C       System.@HandleFinally
 0001:000048D4       System.@HandleFinallyInternal
 0001:0000490C       System.@RaiseExcept
 0001:0000497C       System.@RaiseAgain
 0001:000049D0       System.@DoneExcept
 0001:00004A00       System.@TryFinallyExit
 0001:00004A18       System.MapToRunError
 0001:00004AB8       System.@ExceptionHandler
 0001:00004B58       System.SetExceptionHandler
 0001:00004B78       System.UnsetExceptionHandler
 0001:00004BA0       System.FinalizeUnits
 0001:00004C08       System.InitUnits
 0001:00004C74       System.@StartLib
 0001:00004D3C       System.LoadResStringA
 0001:00004D90       System.LoadResStringW
 0001:00004DE0       System.LoadResStringU
 0001:00004DF4       System.@InitResStringImports
 0001:00004E38       System.@InitImports
 0001:00004E5C       System.@InitWideStrings
 0001:00004E78       System.MakeErrorMessage
 0001:00004EDC       System.ExitDll
 0001:00004F08       System.WriteErrorMessage
 0001:00004F98       System.@Halt0
 0001:000050A4       System.@Halt
 0001:000050B0       System.@RunError
 0001:000050BC       System.@Assert
 0001:000050DC       System.@LStrClr
 0001:00005100       System.@LStrArrayClr
 0001:00005130       System.@LStrAsg
 0001:0000518C       System.@NewAnsiString
 0001:000051D8       System.@LStrFromPCharLen
 0001:00005210       System.CharFromWChar
 0001:0000523C       System.CharFromWChar
 0001:00005258       System.WCharFromChar
 0001:00005274       System.EnsureAnsiString
 0001:00005284       System.EnsureUnicodeString
 0001:0000528C       System.@InternalUStrFromLStr
 0001:0000529C       System.@EnsureUnicodeString
 0001:000052BC       System.@InternalLStrFromUStr
 0001:000052CC       System.@LStrFromPWCharLen
 0001:00005350       System.@LStrFromChar
 0001:00005360       System.@LStrFromPChar
 0001:00005394       System.@LStrFromPWChar
 0001:000053D4       System.@LStrFromString
 0001:000053E4       System.@LStrFromArray
 0001:00005404       System.@LStrFromWStr
 0001:0000541C       System.@LStrToString
 0001:00005440       System.@PCharLen
 0001:00005468       System.@LStrAddRef
 0001:00005478       System.@LStrToPChar
 0001:00005490       System.InternalUniqueString
 0001:000054E8       System.UniqueString
 0001:000054F0       System.@UniqueStringA
 0001:000054F8       System.@LStrSetLength
 0001:00005590       System.WStrError
 0001:00005598       System.@NewWideString
 0001:000055B0       System.WStrSet
 0001:000055C0       System.@WStrClr
 0001:000055D8       System.@WStrArrayClr
 0001:000055FC       System.@WStrAsg
 0001:00005624       System.InternalWStrFromPCharLen
 0001:000056C0       System.@WStrFromPCharLen
 0001:000056D0       System.@WStrFromPWCharLen
 0001:000056F4       System.@WStrFromPChar
 0001:00005724       System.@WStrFromPWChar
 0001:00005760       System.@WStrFromWArray
 0001:0000577C       System.@WStrFromLStr
 0001:000057A8       System.@WStrToPWChar
 0001:000057B8       System.@WStrCmp
 0001:0000583C       System.@WStrEqual
 0001:00005844       System.@WStrCopy
 0001:00005890       System.@WStrSetLength
 0001:000058E4       System.@UStrAddRef
 0001:000058EC       System.@UStrClr
 0001:000058F4       System.@UStrArrayClr
 0001:000058FC       System.@UStrAsg
 0001:00005950       System.@UStrLAsg
 0001:00005988       System.@UStrToPWChar
 0001:00005994       System.InternalUStrFromPCharLen
 0001:00005A28       System.@UStrFromPCharLen
 0001:00005A38       System.@UStrFromPWCharLen
 0001:00005A68       System.@UStrFromWChar
 0001:00005A78       System.@UStrFromPChar
 0001:00005AA8       System.@UStrFromPWChar
 0001:00005AE4       System.@UStrFromWArray
 0001:00005B00       System.@UStrFromLStr
 0001:00005B28       System.@LStrFromUStr
 0001:00005B4C       System.@UStrFromWStr
 0001:00005B60       System.@WStrFromUStr
 0001:00005B88       System.@UStrToString
 0001:00005C48       System.@UStrLen
 0001:00005C54       System.@UStrSetLength
 0001:00005CEC       System.@UStrCat
 0001:00005DAC       System.@UStrCat3
 0001:00005E90       System.@UStrCatN
 0001:00005FB0       System.@UStrEqual
 0001:00006018       System.@UStrCopy
 0001:000060E8       System.@UStrDelete
 0001:0000615C       System.@UStrInsert
 0001:00006288       System.InternalUniqueStringU
 0001:000062DC       System.UniqueString
 0001:000062E4       System.@UniqueStringU
 0001:000062EC       System.@NewUnicodeString
 0001:00006330       System.Pos
 0001:0000637C       System.SetCodePage
 0001:00006568       System.@InitializeRecord
 0001:0000659C       System.@InitializeArray
 0001:00006634       System.@Initialize
 0001:00006640       System.@FinalizeRecord
 0001:00006678       System.@VarClr
 0001:00006690       System.@FinalizeArray
 0001:000067A0       System.@Finalize
 0001:000067AC       System.@VarCopy
 0001:000067C4       System.@CopyRecord
 0001:00006904       System.@CopyArray
 0001:00006A1C       System.@New
 0001:00006A30       System.@Dispose
 0001:00006A40       System.WideCharLenToString
 0001:00006A48       System.WideCharLenToStrVar
 0001:00006A54       System.WideCharLenToStrVar
 0001:00006A68       System.OleStrToStrVar
 0001:00006A84       System.StringToOleStr
 0001:00006B04       System.@DispCallByIDError
 0001:00006B0C       System.@_llmul
 0001:00006B30       System.@_llmod
 0001:00006BAC       System.@ValInt64
 0001:00006F24       System.@DynArrayLength
 0001:00006F2C       System.@DynArrayHigh
 0001:00006F34       System.CopyArray
 0001:00006F44       System.FinalizeArray
 0001:00006F4C       System.DynArrayClear
 0001:00006F54       System.DynArraySetLength
 0001:000070EC       System.@DynArraySetLength
 0001:000070F8       System.@DynArrayClear
 0001:00007134       System.@DynArrayAsg
 0001:0000715C       System.@DynArrayAddRef
 0001:00007168       System.DelayLoadResourceModule
 0001:000071B0       System.FindResourceHInstance
 0001:00007414       System.InitializeLocaleData
 0001:00007504       System.FinalizeLocaleDate
 0001:00007530       System.LastHyphenPos
 0001:000075D0       System.ConvertResToUILanguages
 0001:000076C0       System.GetPreferredLangForOldOS
 0001:00007858       System.CheckDifferentLanguageList
 0001:0000787C       System.ThreadUILanguages
 0001:000078C0       System.GetPreferredLangForNewOS
 0001:000079E0       System.GetUILanguages
 0001:00007B04       System.FindBS
 0001:00007B28       System.ToLongPath
 0001:00007D24       System.GetLocaleOverride
 0001:00007FC4       System.LoadResourceModule
 0001:00008090       System.ResouceDLLExists
 0001:000080C8       System.LoadLanguageList
 0001:00008178       System.Load3LettersModule
 0001:000081D4       System.GetResourceModuleName
 0001:00008384       System.EnumResourceModules
 0001:0000838C       System.EnumResourceModules
 0001:000083B8       System.AddModuleUnloadProc
 0001:000083C0       System.RemoveModuleUnloadProc
 0001:000083C8       System.AddModuleUnloadProc
 0001:000083E8       System.RemoveModuleUnloadProc
 0001:0000844C       System.NotifyModuleUnload
 0001:000084A8       System.RegisterModule
 0001:000084B8       System.UnregisterModule
 0001:00008528       System.@IntfClear
 0001:00008540       System.@IntfCopy
 0001:0000856C       System.@IntfAddRef
 0001:00008578       System.TInterfacedObject.AfterConstruction
 0001:00008584       System.TInterfacedObject.BeforeDestruction
 0001:00008594       System.TInterfacedObject.NewInstance
 0001:000085A4       System.TInterfacedObject.QueryInterface
 0001:000085CC       System.TInterfacedObject._AddRef
 0001:000085E0       System.TInterfacedObject._Release
 0001:00008608       System.UnicodeToUtf8
 0001:00008698       System.Utf8ToUnicode
 0001:0000871C       System.UTF8Encode
 0001:0000883C       System.UTF8EncodeToShortString
 0001:000088C8       System.UTF8ToUnicodeString
 0001:000089A0       System.UTF8ToUnicodeString
 0001:00008A3C       System.UTF8ToUnicodeString
 0001:00008AD0       System.UTF8ToString
 0001:00008AE4       System.UTF8ToString
 0001:00008AF8       System.LoadResString
 0001:00008B64       System.GetACP
 0001:00008B6C       System.GetCPUCount
 0001:00008B80       System.SetUtf8CompareLocale
 0001:00008BBC       System.LocalAlloc
 0001:00008BC4       System.LocalFree
 0001:00008BCC       System.LoadLibraryA
 0001:00008BD4       System.lstrcmpiA
 0001:00008BDC       System.@memcpy
 0001:00008BF0       System.@memset
 0001:00008C04       System...
 0001:00008CEA       System.@_delayLoadHelper
 0001:00008F4E       System.@_FUnloadDelayLoadedDLL
 0001:00008FB8       System.@InitDelayHelp
 0001:00008FC7       System.@ShutdownDelayHelp
 0001:00008FE0       System.Finalization
 0001:00009054       SysInit.LocalAlloc
 0001:0000905C       SysInit.LocalFree
 0001:00009064       SysInit.TlsAlloc
 0001:0000906C       SysInit.TlsFree
 0001:00009074       SysInit.TlsGetValue
 0001:0000907C       SysInit.TlsSetValue
 0001:00009084       SysInit.AllocTlsBuffer
 0001:00009090       SysInit.GetTlsSize
 0001:00009098       SysInit.InitThreadTLS
 0001:000090DC       SysInit.InitProcessTLS
 0001:00009108       SysInit.ExitThreadTLS
 0001:00009140       SysInit.ExitProcessTLS
 0001:00009164       SysInit.@GetTls
 0001:000091A4       SysInit.InitializeModule
 0001:000091B0       SysInit.@InitLib
 0001:00009DF4       Windows.CloseHandle
 0001:00009DFC       Windows.CompareString
 0001:00009E04       Windows.CompareStringA
 0001:00009E0C       Windows.CompareStringW
 0001:00009E14       Windows.CreateEvent
 0001:00009E1C       Windows.CreateFile
 0001:00009E24       Windows.CreateFileMapping
 0001:00009E2C       Windows.DeleteCriticalSection
 0001:00009E34       Windows.EnterCriticalSection
 0001:00009E3C       Windows.EnumCalendarInfo
 0001:00009E44       Windows.ExpandEnvironmentStrings
 0001:00009E4C       Windows.FileTimeToLocalFileTime
 0001:00009E54       Windows.FindResource
 0001:00009E5C       Windows.FormatMessage
 0001:00009E64       Windows.FreeLibrary
 0001:00009E6C       Windows.InterlockedCompareExchange
 0001:00009E74       Windows.InterlockedCompareExchangePointer
 0001:00009E8C       Windows.InterlockedExchange
 0001:00009E94       Windows.InterlockedExchangeAdd
 0001:00009E9C       Windows.FreeResource
 0001:00009EA4       Windows.GetACP
 0001:00009EAC       Windows.GetCPInfo
 0001:00009EB4       Windows.GetCurrentDirectory
 0001:00009EBC       Windows.GetCurrentProcess
 0001:00009EC4       Windows.GetCurrentProcessId
 0001:00009ECC       Windows.GetCurrentThreadId
 0001:00009ED4       Windows.GetDateFormat
 0001:00009EDC       Windows.GetDiskFreeSpace
 0001:00009EE4       Windows.GetEnvironmentVariable
 0001:00009EEC       Windows.GetFileAttributes
 0001:00009EF4       Windows.GetFileAttributesEx
 0001:00009EFC       Windows.GetFileSize
 0001:00009F04       Windows.GetFullPathName
 0001:00009F0C       Windows.GetLastError
 0001:00009F14       Windows.GetLocalTime
 0001:00009F1C       Windows.GetLocaleInfo
 0001:00009F24       Windows.GetModuleFileName
 0001:00009F2C       Windows.GetModuleFileNameA
 0001:00009F34       Windows.GetModuleHandle
 0001:00009F3C       Windows.GetProcAddress
 0001:00009F44       Windows.GetProcAddress
 0001:00009FB8       Windows.GetStdHandle
 0001:00009FC0       Windows.GetStringTypeEx
 0001:00009FC8       Windows.GetStringTypeExA
 0001:00009FD0       Windows.GetSystemInfo
 0001:00009FD8       Windows.GetThreadLocale
 0001:00009FE0       Windows.GetVersionEx
 0001:00009FE8       Windows.InitializeCriticalSection
 0001:00009FF0       Windows.IsBadReadPtr
 0001:00009FF8       Windows.LeaveCriticalSection
 0001:0000A000       Windows.LoadLibrary
 0001:0000A008       Windows.LoadLibraryEx
 0001:0000A010       Windows.LoadResource
 0001:0000A018       Windows.LockResource
 0001:0000A020       Windows.MapViewOfFile
 0001:0000A028       Windows.MultiByteToWideChar
 0001:0000A030       Windows.OpenFileMapping
 0001:0000A038       Windows.OpenMutex
 0001:0000A040       Windows.OpenProcess
 0001:0000A048       Windows.ReadFile
 0001:0000A050       Windows.ReleaseMutex
 0001:0000A058       Windows.ResetEvent
 0001:0000A060       Windows.SearchPath
 0001:0000A068       Windows.SetEndOfFile
 0001:0000A070       Windows.SetErrorMode
 0001:0000A078       Windows.SetEvent
 0001:0000A080       Windows.SetFilePointer
 0001:0000A088       Windows.SetLastError
 0001:0000A090       Windows.SignalObjectAndWait
 0001:0000A098       Windows.SizeofResource
 0001:0000A0A0       Windows.Sleep
 0001:0000A0A8       Windows.SwitchToThread
 0001:0000A0B0       Windows.TryEnterCriticalSection
 0001:0000A0B8       Windows.UnmapViewOfFile
 0001:0000A0C0       Windows.VerLanguageName
 0001:0000A0C8       Windows.VirtualAlloc
 0001:0000A0D0       Windows.VirtualFree
 0001:0000A0D8       Windows.VirtualQuery
 0001:0000A0E0       Windows.VirtualQueryEx
 0001:0000A0E8       Windows.WaitForSingleObject
 0001:0000A0F0       Windows.WaitForSingleObjectEx
 0001:0000A0F8       Windows.WideCharToMultiByte
 0001:0000A100       Windows.WriteFile
 0001:0000A108       Windows.lstrlenA
 0001:0000A110       Windows.lstrlenW
 0001:0000A118       Windows.GetFileVersionInfo
 0001:0000A120       Windows.GetFileVersionInfoSize
 0001:0000A128       Windows.VerQueryValue
 0001:0000A130       Windows.CharLowerBuff
 0001:0000A138       Windows.CharLowerBuffA
 0001:0000A140       Windows.CharNext
 0001:0000A148       Windows.CharUpperBuff
 0001:0000A150       Windows.CharUpperBuffA
 0001:0000A158       Windows.GetSystemMetrics
 0001:0000A160       Windows.GetWindowThreadProcessId
 0001:0000A168       Windows.LoadString
 0001:0000A170       Windows.MessageBox
 0001:0000A178       Windows.MessageBoxA
 0001:0000A180       Windows.InitVersionInfo
 0001:0000A1BC       Windows.Finalization
 0001:0000A234       FastMM4.LockCmpxchg
 0001:0000A23C       FastMM4.FindFirstSetBit
 0001:0000A240       FastMM4.AppendModuleFileName
 0001:0000A264       FastMM4.AppendStringToModuleName
 0001:0000A2B8       FastMM4.ShowMessageBox
 0001:0000A2E8       FastMM4.LockMediumBlocks
 0001:0000A328       FastMM4.RemoveMediumFreeBlock
 0001:0000A378       FastMM4.InsertMediumBlockIntoBin
 0001:0000A3D4       FastMM4.BinMediumSequentialFeedRemainder
 0001:0000A43C       FastMM4.AllocNewSequentialFeedMediumPool
 0001:0000A4B4       FastMM4.LockLargeBlocks
 0001:0000A4F4       FastMM4.AllocateLargeBlock
 0001:0000A558       FastMM4.FreeLargeBlock
 0001:0000A5FC       FastMM4.ReallocateLargeBlock
 0001:0000A748       FastMM4.FastGetMem
 0001:0000AAF4       FastMM4.FreeMediumBlock
 0001:0000AC00       FastMM4.FastFreeMem
 0001:0000ACCC       FastMM4.MediumBlockInPlaceUpsize
 0001:0000ADF8       FastMM4.MediumBlockInPlaceDownsize
 0001:0000AEE8       FastMM4.FastReallocMem
 0001:0000B160       FastMM4.FastAllocMem
 0001:0000B18C       FastMM4.NoOpRegisterExpectedMemoryLeak
 0001:0000B190       FastMM4.NoOpUnregisterExpectedMemoryLeak
 0001:0000B194       FastMM4.FreeAllMemory
 0001:0000B224       FastMM4.CheckCanInstallMemoryManager
 0001:0000B640       FastMM4.InstallMemoryManager
 0001:0000B6A8       FastMM4.UninstallMemoryManager
 0001:0000B6C4       FastMM4.FinalizeMemoryManager
 0001:0000B6E4       FastMM4.Finalization
 0001:0000BB64       Character.TCharacter.CheckLetter
 0001:0000BB70       Character.TCharacter.CheckLetterOrDigit
 0001:0000BB80       Character.TCharacter.IsLatin1
 0001:0000BB8C       Character.TCharacter.IsLetter
 0001:0000BC18       Character.TCharacter.IsLetterOrDigit
 0001:0000BC80       Character.TCharacter.IsAscii
 0001:0000BC8C       Character.TCharacter.Initialize
 0001:0000BD34       StrUtils.PosEx
 0001:0000BFC0       SysUtils..Exception
 0001:0000C588       SysUtils..EAbort
 0001:0000C618       SysUtils..EHeapException
 0001:0000C70C       SysUtils..EOutOfMemory
 0001:0000C7A8       SysUtils..EInOutError
 0001:0000C860       SysUtils..EExternal
 0001:0000C918       SysUtils..EExternalException
 0001:0000C9C0       SysUtils..EIntError
 0001:0000CA54       SysUtils..EDivByZero
 0001:0000CAEC       SysUtils..ERangeError
 0001:0000CB84       SysUtils..EIntOverflow
 0001:0000CC20       SysUtils..EMathError
 0001:0000CCB8       SysUtils..EInvalidOp
 0001:0000CD50       SysUtils..EZeroDivide
 0001:0000CDE8       SysUtils..EOverflow
 0001:0000CE7C       SysUtils..EUnderflow
 0001:0000CF14       SysUtils..EInvalidPointer
 0001:0000CFB4       SysUtils..EInvalidCast
 0001:0000D050       SysUtils..EConvertError
 0001:0000D0EC       SysUtils..EAccessViolation
 0001:0000D190       SysUtils..EPrivilege
 0001:0000D228       SysUtils..EStackOverflow
 0001:0000D2C8       SysUtils..EControlC
 0001:0000D35C       SysUtils..EVariantError
 0001:0000D3F8       SysUtils..EAssertionFailed
 0001:0000D49C       SysUtils..EAbstractError
 0001:0000D53C       SysUtils..EIntfCastError
 0001:0000D5DC       SysUtils..EPackageError
 0001:0000D678       SysUtils..EOSError
 0001:0000D728       SysUtils..ESafecallException
 0001:0000D7D0       SysUtils..EMonitor
 0001:0000D864       SysUtils..EMonitorLockException
 0001:0000D910       SysUtils..ENoMonitorSupportException
 0001:0000DAB0       SysUtils..TThreadLocalCounter
 0001:0000DCD4       SysUtils..TMultiReadExclusiveWriteSynchronizer
 0001:0000DFDC       SysUtils..EEncodingError
 0001:0000E07C       SysUtils..TEncoding
 0001:0000E9EC       SysUtils.TEncoding.GetMaxByteCount
 0001:0000E9F4       SysUtils.TEncoding.GetMaxCharCount
 0001:0000E9FC       SysUtils.TEncoding.GetPreamble
 0001:0000EA04       SysUtils..TMBCSEncoding
 0001:0000ECC8       SysUtils..TUTF7Encoding
 0001:0000EE48       SysUtils..TUTF8Encoding
 0001:0000F008       SysUtils..TUnicodeEncoding
 0001:0000F1C8       SysUtils..TBigEndianUnicodeEncoding
 0001:0000F2D4       SysUtils.DivMod
 0001:0000F2F0       SysUtils.ConvertError
 0001:0000F308       SysUtils.ConvertErrorFmt
 0001:0000F32C       SysUtils.IsLeadChar
 0001:0000F33C       SysUtils.UpperCaseFromAnsiString
 0001:0000F38C       SysUtils.UpperCase
 0001:0000F404       SysUtils.LowerCaseFromAnsiString
 0001:0000F454       SysUtils.LowerCase
 0001:0000F4CC       SysUtils.CompareStr
 0001:0000F58C       SysUtils.CompareMem
 0001:0000F620       SysUtils.CompareText
 0001:0000F71C       SysUtils.SameText
 0001:0000F740       SysUtils.AnsiUpperCase
 0001:0000F7D0       SysUtils.AnsiLowerCase
 0001:0000F860       SysUtils.AnsiCompareStr
 0001:0000F92C       SysUtils.AnsiCompareText
 0001:0000F9F8       SysUtils.Trim
 0001:0000FAB8       SysUtils.AnsiQuotedStr
 0001:0000FC58       SysUtils.AnsiExtractQuotedStr
 0001:0000FD94       SysUtils.IsValidIdent
 0001:0000FF40       SysUtils.CvtInt
 0001:0000FF8C       SysUtils.CvtIntW
 0001:0000FFEC       SysUtils.IntToStr
 0001:0001000C       SysUtils.UIntToStr
 0001:00010048       SysUtils.CvtInt64W
 0001:0001012C       SysUtils.CvtInt64
 0001:000101F8       SysUtils.IntToStr
 0001:00010220       SysUtils.IntToHex
 0001:00010248       SysUtils.StrToInt
 0001:00010284       SysUtils.StrToIntDef
 0001:0001029C       SysUtils.TryStrToInt
 0001:000102BC       SysUtils.TryStrToInt64
 0001:000102DC       SysUtils.VerifyBoolStrArray
 0001:0001037C       SysUtils.CompareWith
 0001:000103CC       SysUtils.TryStrToBool
 0001:00010474       SysUtils.BoolToStr
 0001:00010508       SysUtils.EnumStringModules
 0001:00010544       SysUtils.FindStringResource
 0001:000105BC       SysUtils.LoadStr
 0001:000105D0       SysUtils.FileOpen
 0001:00010628       SysUtils.FileCreate
 0001:0001066C       SysUtils.FileRead
 0001:00010698       SysUtils.FileWrite
 0001:000106C4       SysUtils.FileSeek
 0001:00010714       SysUtils.AnsiLastChar
 0001:000107B0       SysUtils.LastDelimiter
 0001:0001088C       SysUtils.ChangeFileExt
 0001:00010960       SysUtils.ExtractFilePath
 0001:0001099C       SysUtils.ExtractFileName
 0001:000109DC       SysUtils.ExtractFileExt
 0001:00010A90       SysUtils.ExpandFileName
 0001:00010B24       SysUtils.BackfillGetDiskFreeSpaceEx
 0001:00010B98       SysUtils.StrLen
 0001:00010BC8       SysUtils.StrLen
 0001:00010BE8       SysUtils.StrEnd
 0001:00010C04       SysUtils.StrMove
 0001:00010C14       SysUtils.StrLCopy
 0001:00010C48       SysUtils.StrLCopy
 0001:00010C84       SysUtils.StrIComp
 0001:00010CD4       SysUtils.StrLComp
 0001:00010CFC       SysUtils.StrLComp
 0001:00010D48       SysUtils.StrLIComp
 0001:00010D8C       SysUtils.StrLIComp
 0001:00010DF8       SysUtils.StrScan
 0001:00010E14       SysUtils.StrRScan
 0001:00010E44       SysUtils.StrPos
 0001:00010E9C       SysUtils.StrPosLen
 0001:00010EFC       SysUtils.WideStrAlloc
 0001:00010F14       SysUtils.StrNew
 0001:00010F40       SysUtils.FormatError
 0001:00010F88       SysUtils.FormatBuf
 0001:00010FA4       SysUtils.StrLFmt
 0001:00010FE8       SysUtils.Format
 0001:00010FFC       SysUtils.FmtStr
 0001:00011194       SysUtils.WideFormatError
 0001:00011214       SysUtils.WideFormatVarToStr
 0001:00011238       SysUtils.WideFloatToText
 0001:00011254       SysUtils.WideFormatBuf
 0001:00011638       SysUtils.PutExponent
 0001:0001169C       SysUtils.FloatToText
 0001:0001199C       SysUtils.FloatToDecimal
 0001:00011BC8       SysUtils.TextToFloat
 0001:00011CDC       SysUtils.TextToFloat
 0001:00011D40       SysUtils.FloatToStr
 0001:00011D70       SysUtils.CurrToStr
 0001:00011DA0       SysUtils.FloatToStrF
 0001:00011DD8       SysUtils.TryStrToFloat
 0001:00011DF4       SysUtils.TryStrToFloat
 0001:00011E64       SysUtils.TryStrToFloat
 0001:00011ED4       SysUtils.TryStrToCurr
 0001:00011EF0       SysUtils.DateTimeToTimeStamp
 0001:00011F34       SysUtils.TryEncodeTime
 0001:00011FA4       SysUtils.EncodeTime
 0001:00011FE4       SysUtils.DecodeTime
 0001:00012040       SysUtils.IsLeapYear
 0001:0001207C       SysUtils.TryEncodeDate
 0001:00012148       SysUtils.EncodeDate
 0001:00012178       SysUtils.DecodeDateFully
 0001:000122C4       SysUtils.DecodeDate
 0001:000122E4       SysUtils.DayOfWeek
 0001:0001230C       SysUtils.Now
 0001:0001235C       SysUtils.CurrentYear
 0001:00012370       SysUtils.AppendChars
 0001:000123B4       SysUtils.AppendString
 0001:00012428       SysUtils.AppendNumber
 0001:00012474       SysUtils.GetCount
 0001:000124A8       SysUtils.GetDate
 0001:000124E0       SysUtils.GetTime
 0001:00012520       SysUtils.ConvertEraString
 0001:000126AC       SysUtils.ConvertYearString
 0001:000127D8       SysUtils.AppendFormat
 0001:00012FCC       SysUtils.DateTimeToString
 0001:00013028       SysUtils.ScanBlanks
 0001:00013094       SysUtils.ScanNumber
 0001:0001315C       SysUtils.ScanString
 0001:0001323C       SysUtils.ScanChar
 0001:000132E8       SysUtils.GetDateOrder
 0001:00013380       SysUtils.ScanToNumber
 0001:00013444       SysUtils.GetEraYearOffset
 0001:00013498       SysUtils.EraToYear
 0001:000134F4       SysUtils.ScanDate
 0001:000138AC       SysUtils.ScanTime
 0001:00013AB4       SysUtils.TryStrToDate
 0001:00013B44       SysUtils.TryStrToTime
 0001:00013BD4       SysUtils.TryStrToDateTime
 0001:00013E04       SysUtils.SysErrorMessage
 0001:00013E54       SysUtils.GetLocaleStr
 0001:00013EA0       SysUtils.GetLocaleChar
 0001:00013ECC       SysUtils.LocalGetLocaleStr
 0001:00013F0C       SysUtils.GetMonthDayNames
 0001:00014030       SysUtils.EnumEraNames
 0001:0001406C       SysUtils.EnumEraYearOffsets
 0001:000140E4       SysUtils.GetEraNamesAndYearOffsets
 0001:00014198       SysUtils.TranslateDateFormat
 0001:00014458       SysUtils.ConvertAddr
 0001:00014464       SysUtils.ExceptionErrorMessage
 0001:00014654       SysUtils.ShowException
 0001:00014798       SysUtils.Exception.Create
 0001:000147D4       SysUtils.Exception.CreateFmt
 0001:00014854       SysUtils.Exception.CreateRes
 0001:000148CC       SysUtils.Exception.CreateRes
 0001:00014908       SysUtils.Exception.CreateResFmt
 0001:0001499C       SysUtils.Exception.CreateResFmt
 0001:00014A30       SysUtils.Exception.CreateHelp
 0001:00014A78       SysUtils.Exception.CreateFmtHelp
 0001:00014B00       SysUtils.Exception.CreateResHelp
 0001:00014B80       SysUtils.Exception.CreateResHelp
 0001:00014BC8       SysUtils.Exception.CreateResFmtHelp
 0001:00014C64       SysUtils.Exception.CreateResFmtHelp
 0001:00014D00       SysUtils.Exception.Destroy
 0001:00014D44       SysUtils.Exception.GetBaseException
 0001:00014D50       SysUtils.Exception.GetStackTrace
 0001:00014D7C       SysUtils.Exception.RaiseOuterException
 0001:00014D90       SysUtils.Exception.ThrowOuterException
 0001:00014DA4       SysUtils.Exception.RaisingException
 0001:00014DD0       SysUtils.Exception.SetInnerException
 0001:00014DF8       SysUtils.Exception.SetStackInfo
 0001:00014DFC       SysUtils.Exception.ToString
 0001:00014E54       SysUtils.EHeapException.FreeInstance
 0001:00014E60       SysUtils.EHeapException.RaisingException
 0001:00014EB0       SysUtils.CreateInOutError
 0001:000150B0       SysUtils.ErrorHandler
 0001:00015108       SysUtils.CreateAssertException
 0001:000151B4       SysUtils.RaiseAssertException
 0001:000151C4       SysUtils.AssertErrorHandler
 0001:000151E0       SysUtils.AbstractErrorHandler
 0001:000151F8       SysUtils.MapException
 0001:00015278       SysUtils.GetExceptionClass
 0001:00015298       SysUtils.CreateAVObject
 0001:00015464       SysUtils.GetExceptionObject
 0001:0001553C       SysUtils.RaiseExceptObject
 0001:00015560       SysUtils.ExceptHandler
 0001:00015570       SysUtils.InitExceptions
 0001:00015600       SysUtils.DoneExceptions
 0001:00015680       SysUtils.Exception.Destroy@
 0001:00015690       SysUtils.Push
 0001:000156B0       SysUtils.Pop
 0001:000156D0       SysUtils.NewSyncObj
 0001:00015734       SysUtils.FreeSyncObj
 0001:0001575C       SysUtils.NewWaitObj
 0001:0001579C       SysUtils.FreeWaitObj
 0001:000157C8       SysUtils.WaitAndOrSignalObj
 0001:00015800       SysUtils.InitMonitorSupport
 0001:0001580C       SysUtils.CleanStack
 0001:0001583C       SysUtils.CleanEventList
 0001:00015868       SysUtils.DoneMonitorSupport
 0001:000158A0       SysUtils.InitPlatformId
 0001:00015910       SysUtils.CheckWin32Version
 0001:00015930       SysUtils.ByteTypeTest
 0001:000159A4       SysUtils.ByteType
 0001:000159C8       SysUtils.ElementToCharLen
 0001:00015A6C       SysUtils.ByteToCharLen
 0001:00015A74       SysUtils.ElementToCharIndex
 0001:00015B54       SysUtils.ByteToCharIndex
 0001:00015B5C       SysUtils.CountChars
 0001:00015C7C       SysUtils.CharToElementIndex
 0001:00015D5C       SysUtils.CharToByteIndex
 0001:00015D64       SysUtils.CharToElementLen
 0001:00015E74       SysUtils.CharToByteLen
 0001:00015E7C       SysUtils.StrCharLength
 0001:00015EAC       SysUtils.StrNextChar
 0001:00015EDC       SysUtils.CharLength
 0001:00015F70       SysUtils.NextCharIndex
 0001:0001600C       SysUtils.AnsiPos
 0001:000160EC       SysUtils.AnsiStrPos
 0001:000160F4       SysUtils.AnsiStrRScan
 0001:000160FC       SysUtils.AnsiStrScan
 0001:00016104       SysUtils.InitLeadBytes
 0001:00016160       SysUtils.InitSysLocale
 0001:00016218       SysUtils.GetFormatSettings
 0001:00016744       SysUtils.HashNameMBCS
 0001:000167D8       SysUtils.HashName
 0001:00016810       SysUtils.ModuleUnloaded
 0001:00016928       SysUtils.PackageInfoTable
 0001:000169B0       SysUtils.GetModuleName
 0001:000169E0       SysUtils.Sleep
 0001:000169E8       SysUtils.GetPackageInfo
 0001:00016B3C       SysUtils.GetPackageDescription
 0001:00016CB0       SysUtils.RaiseLastOSError
 0001:00016CBC       SysUtils.RaiseLastOSError
 0001:00016D54       SysUtils.Win32Check
 0001:00016D64       SysUtils.FreeTerminateProcs
 0001:00016D88       SysUtils.InitDriveSpacePtr
 0001:00016E04       SysUtils.InterlockedIncrement
 0001:00016E10       SysUtils.InterlockedDecrement
 0001:00016E1C       SysUtils.InterlockedExchange
 0001:00016E24       SysUtils.InterlockedExchangeAdd
 0001:00016E2C       SysUtils.TThreadLocalCounter.Destroy
 0001:00016E84       SysUtils.TThreadLocalCounter.HashIndex
 0001:00016EA0       SysUtils.TThreadLocalCounter.Open
 0001:00016F18       SysUtils.TThreadLocalCounter.Close
 0001:00016F20       SysUtils.TThreadLocalCounter.Delete
 0001:00016F30       SysUtils.TThreadLocalCounter.Recycle
 0001:00016F74       SysUtils.TMultiReadExclusiveWriteSynchronizer.Create
 0001:00016FE8       SysUtils.TMultiReadExclusiveWriteSynchronizer.Destroy
 0001:00017030       SysUtils.TMultiReadExclusiveWriteSynchronizer.BlockReaders
 0001:0001703C       SysUtils.TMultiReadExclusiveWriteSynchronizer.UnblockReaders
 0001:00017048       SysUtils.TMultiReadExclusiveWriteSynchronizer.UnblockOneWriter
 0001:00017054       SysUtils.TMultiReadExclusiveWriteSynchronizer.WaitForReadSignal
 0001:00017064       SysUtils.TMultiReadExclusiveWriteSynchronizer.WaitForWriteSignal
 0001:00017074       SysUtils.TMultiReadExclusiveWriteSynchronizer.BeginWrite
 0001:00017120       SysUtils.TMultiReadExclusiveWriteSynchronizer.EndWrite
 0001:00017170       SysUtils.TMultiReadExclusiveWriteSynchronizer.BeginRead
 0001:000171E0       SysUtils.TMultiReadExclusiveWriteSynchronizer.EndRead
 0001:00017248       SysUtils.FreeAndNil
 0001:00017258       SysUtils.Supports
 0001:0001727C       SysUtils.Supports
 0001:00017314       SysUtils.SafeLoadLibrary
 0001:00017398       SysUtils.ClearHashTables
 0001:000173C8       SysUtils.TEncoding.Convert
 0001:0001743C       SysUtils.TEncoding.Convert
 0001:000174B8       SysUtils.TEncoding.Destroy@
 0001:000174CC       SysUtils.TEncoding.FreeEncodings
 0001:0001753C       SysUtils.TEncoding.GetBigEndianUnicode
 0001:00017578       SysUtils.ContainsPreamble
 0001:000175D4       SysUtils.TEncoding.GetBufferEncoding
 0001:000176DC       SysUtils.TEncoding.GetByteCount
 0001:000176F8       SysUtils.TEncoding.GetByteCount
 0001:000177A4       SysUtils.TEncoding.GetByteCount
 0001:00017828       SysUtils.TEncoding.GetByteCount
 0001:0001792C       SysUtils.TEncoding.GetBytes
 0001:00017974       SysUtils.TEncoding.GetBytes
 0001:00017AE0       SysUtils.TEncoding.GetBytes
 0001:00017B84       SysUtils.TEncoding.GetBytes
 0001:00017D28       SysUtils.TEncoding.GetCharCount
 0001:00017D44       SysUtils.TEncoding.GetCharCount
 0001:00017E10       SysUtils.TEncoding.GetChars
 0001:00017E34       SysUtils.TEncoding.GetChars
 0001:00017F34       SysUtils.TEncoding.GetChars
 0001:00018088       SysUtils.TEncoding.GetDefault
 0001:000180C8       SysUtils.TEncoding.GetEncoding
 0001:000180D8       SysUtils.TEncoding.GetString
 0001:000180FC       SysUtils.TEncoding.GetString
 0001:0001816C       SysUtils.TEncoding.GetUnicode
 0001:000181A8       SysUtils.TEncoding.GetUTF8
 0001:000181E4       SysUtils.TEncoding.IsStandardEncoding
 0001:0001821C       SysUtils.TMBCSEncoding.Create
 0001:0001825C       SysUtils.TMBCSEncoding.Create
 0001:000182A4       SysUtils.TMBCSEncoding.Create
 0001:00018320       SysUtils.TMBCSEncoding.GetByteCount
 0001:00018338       SysUtils.TMBCSEncoding.GetBytes
 0001:0001835C       SysUtils.TMBCSEncoding.GetCharCount
 0001:00018370       SysUtils.TMBCSEncoding.GetChars
 0001:00018390       SysUtils.TMBCSEncoding.GetMaxByteCount
 0001:00018398       SysUtils.TMBCSEncoding.GetMaxCharCount
 0001:0001839C       SysUtils.TMBCSEncoding.GetPreamble
 0001:000183B8       SysUtils.TUTF7Encoding.Create
 0001:000183F4       SysUtils.TUTF7Encoding.GetByteCount
 0001:000183FC       SysUtils.TUTF7Encoding.GetBytes
 0001:00018414       SysUtils.TUTF7Encoding.GetCharCount
 0001:0001841C       SysUtils.TUTF7Encoding.GetChars
 0001:00018434       SysUtils.TUTF7Encoding.GetMaxByteCount
 0001:0001843C       SysUtils.TUTF7Encoding.GetMaxCharCount
 0001:00018440       SysUtils.TUTF8Encoding.Create
 0001:00018480       SysUtils.TUTF8Encoding.GetMaxByteCount
 0001:00018488       SysUtils.TUTF8Encoding.GetMaxCharCount
 0001:0001848C       SysUtils.TUTF8Encoding.GetPreamble
 0001:000184BC       SysUtils.TUnicodeEncoding.Create
 0001:000184E8       SysUtils.TUnicodeEncoding.GetByteCount
 0001:000184F0       SysUtils.TUnicodeEncoding.GetBytes
 0001:0001850C       SysUtils.TUnicodeEncoding.GetCharCount
 0001:00018518       SysUtils.TUnicodeEncoding.GetChars
 0001:00018538       SysUtils.TUnicodeEncoding.GetMaxByteCount
 0001:00018540       SysUtils.TUnicodeEncoding.GetMaxCharCount
 0001:00018550       SysUtils.TUnicodeEncoding.GetPreamble
 0001:00018578       SysUtils.TBigEndianUnicodeEncoding.GetBytes
 0001:000185AC       SysUtils.TBigEndianUnicodeEncoding.GetChars
 0001:000185E8       SysUtils.TBigEndianUnicodeEncoding.GetPreamble
 0001:000189A0       SysUtils.Finalization
 0001:00018C9C       ActiveX.CoInitialize
 0001:00018CA4       ActiveX.CoUninitialize
 0001:00018CAC       ActiveX.SysFreeString
 0001:00018CB4       ActiveX.GetErrorInfo
 0001:00018CBC       VarUtils.VariantInit
 0001:00018CC4       VarUtils.VariantClear
 0001:00018CCC       VarUtils.VariantCopy
 0001:00018CD4       VarUtils.VariantChangeType
 0001:00018CDC       VarUtils.BackupVariantChangeTypeEx
 0001:00018D0C       VarUtils.UniUnimplemented
 0001:00018D18       VarUtils.BiUnimplemented
 0001:00018D24       VarUtils.CmpUnimplemented
 0001:00018D30       VarUtils.BackupVarI4FromStr
 0001:00018D9C       VarUtils.BackupVarR4FromStr
 0001:00018E08       VarUtils.BackupVarR8FromStr
 0001:00018E74       VarUtils.BackupVarDateFromStr
 0001:00018EE0       VarUtils.BackupVarCyFromStr
 0001:00018F4C       VarUtils.BackupVarBoolFromStr
 0001:00018FCC       VarUtils.BackupVarBStrFromCy
 0001:0001903C       VarUtils.BackupVarBStrFromDate
 0001:000190B0       VarUtils.BackupVarBStrFromBool
 0001:00019124       VarUtils.SafeArrayCreate
 0001:0001912C       VarUtils.SafeArrayGetLBound
 0001:00019134       VarUtils.SafeArrayGetUBound
 0001:0001913C       VarUtils.SafeArrayPtrOfIndex
 0001:00019144       VarUtils.FindProc
 0001:00019170       VarUtils.InitializeVarUtils
 0001:00019488       VarUtils.Finalization
 0001:00019530       Variants..TCustomVariantType
 0001:00019A30       Variants.TCustomVariantType.Clear
 0001:00019A38       Variants.TCustomVariantType.Copy
 0001:00019A40       Variants..EVariantInvalidOpError
 0001:00019AF0       Variants..EVariantTypeCastError
 0001:00019B9C       Variants..EVariantOverflowError
 0001:00019C48       Variants..EVariantInvalidArgError
 0001:00019CF8       Variants..EVariantBadVarTypeError
 0001:00019DA8       Variants..EVariantBadIndexError
 0001:00019E54       Variants..EVariantArrayLockedError
 0001:00019F08       Variants..EVariantArrayCreateError
 0001:00019FBC       Variants..EVariantNotImplError
 0001:0001A068       Variants..EVariantOutOfMemoryError
 0001:0001A11C       Variants..EVariantUnexpectedError
 0001:0001A1CC       Variants..EVariantDispatchError
 0001:0001A278       Variants..EVariantInvalidNullOpError
 0001:0001A330       Variants.VarCastError
 0001:0001A384       Variants.VarCastError
 0001:0001A420       Variants.VarInvalidOp
 0001:0001A474       Variants.VarInvalidNullOp
 0001:0001A4C8       Variants.VarOverflowError
 0001:0001A564       Variants.VarArrayCreateError
 0001:0001A5B8       Variants.TranslateResult
 0001:0001A80C       Variants.VarResultCheck
 0001:0001A818       Variants.VarResultCheck
 0001:0001A84C       Variants.HandleConversionException
 0001:0001A8D0       Variants.@DispInvokeError
 0001:0001A924       Variants.@VarNull
 0001:0001A938       Variants.InBounds
 0001:0001A968       Variants.Increment
 0001:0001A9C4       Variants.VarArrayClear
 0001:0001AB40       Variants.VarClearDeep
 0001:0001ABD4       Variants.@VarClear
 0001:0001ABE8       Variants.@VarClr
 0001:0001ABF0       Variants.InBounds
 0001:0001AC20       Variants.Increment
 0001:0001AC7C       Variants.VarArrayCopyForEach
 0001:0001AE48       Variants.VarCopyCopyProc
 0001:0001AE50       Variants.VarCopyDeep
 0001:0001AF3C       Variants.@VarCopy
 0001:0001AF80       Variants.VarCastAsAny
 0001:0001AFEC       Variants.VarCastAsOleStr
 0001:0001B038       Variants.VarCastAsString
 0001:0001B084       Variants.VarCastAsUString
 0001:0001B0D0       Variants.VarCastAsDispatch
 0001:0001B11C       Variants.VarCastAsInterface
 0001:0001B168       Variants.VarCastViaOS
 0001:0001B1E8       Variants.VarCastRare
 0001:0001B254       Variants.@VarCast
 0001:0001B4A8       Variants.VarToIntAsString
 0001:0001B55C       Variants.VarToIntViaOS
 0001:0001B598       Variants.VarToIntAny
 0001:0001B5FC       Variants.VarToIntCustom
 0001:0001B640       Variants.@VarToInteger
 0001:0001BAF0       Variants.@VarToShortInt
 0001:0001BBA4       Variants.@VarToByte
 0001:0001BC50       Variants.@VarToSmallInt
 0001:0001BD4C       Variants.@VarToWord
 0001:0001BE28       Variants.@VarToLongWord
 0001:0001BF14       Variants.VarToInt64ViaOS
 0001:0001BFC0       Variants.VarToInt64AsString
 0001:0001C0C0       Variants.VarToInt64Any
 0001:0001C12C       Variants.VarToInt64Custom
 0001:0001C178       Variants.@VarToInt64
 0001:0001C608       Variants.@VarToUInt64
 0001:0001C76C       Variants.VarToBoolAsString
 0001:0001C830       Variants.VarToBoolViaOS
 0001:0001C870       Variants.VarToBoolAny
 0001:0001C8D4       Variants.VarToBoolCustom
 0001:0001C920       Variants.@VarToBoolean
 0001:0001CCBC       Variants.@VarToBool
 0001:0001CCC8       Variants.VarToDoubleAsString
 0001:0001CD8C       Variants.VarToDoubleViaOS
 0001:0001CDD8       Variants.VarToDoubleAny
 0001:0001CE3C       Variants.VarToDoubleCustom
 0001:0001CE88       Variants.@VarToDouble
 0001:0001D278       Variants.@VarToReal
 0001:0001D294       Variants.@VarToSingle
 0001:0001D458       Variants.VarToDateAsString
 0001:0001D544       Variants.VarToDateAsDouble
 0001:0001D5A4       Variants.VarToDateViaOS
 0001:0001D5F0       Variants.VarToDateAny
 0001:0001D654       Variants.VarToDateCustom
 0001:0001D6A0       Variants.@VarToDate
 0001:0001DA84       Variants.VarToCurrencyAsString
 0001:0001DB40       Variants.VarToCurrencyAsDouble
 0001:0001DBA0       Variants.VarToCurrencyViaOS
 0001:0001DBEC       Variants.VarToCurrencyAny
 0001:0001DC50       Variants.VarToCurrencyCustom
 0001:0001DC9C       Variants.@VarToCurrency
 0001:0001E0F8       Variants.CurrToWStrViaOS
 0001:0001E130       Variants.DateToWStrViaOS
 0001:0001E168       Variants.BoolToWStrViaOS
 0001:0001E230       Variants.VarToLStrViaOS
 0001:0001E2E8       Variants.VarToLStrAny
 0001:0001E34C       Variants.VarToLStrCustom
 0001:0001E3D4       Variants.@VarToLStr
 0001:0001EA7C       Variants.VarToWStrViaOS
 0001:0001EB48       Variants.VarToWStrAny
 0001:0001EBAC       Variants.VarToWStrCustom
 0001:0001EC88       Variants.@VarToWStr
 0001:0001F284       Variants.VarToUStrAny
 0001:0001F2E8       Variants.VarToUStrCustom
 0001:0001F3B0       Variants.@VarToUStr
 0001:0001F9B8       Variants.AnyToIntf
 0001:0001FA30       Variants.@VarToIntf
 0001:0001FAFC       Variants.@VarToDisp
 0001:0001FBA8       Variants.@VarFromInt
 0001:0001FBE4       Variants.@VarFromInteger
 0001:0001FC04       Variants.@VarFromByte
 0001:0001FC24       Variants.@VarFromWord
 0001:0001FC44       Variants.@VarFromLongWord
 0001:0001FC64       Variants.@VarFromUInt64
 0001:0001FC90       Variants.@VarFromShortInt
 0001:0001FCB0       Variants.@VarFromSmallInt
 0001:0001FCD0       Variants.@VarFromInt64
 0001:0001FCFC       Variants.@VarFromSingle
 0001:0001FD20       Variants.@VarFromDouble
 0001:0001FD4C       Variants.@VarFromCurrency
 0001:0001FD78       Variants.@VarFromDate
 0001:0001FDA4       Variants.@VarFromBool
 0001:0001FDCC       Variants.@VarFromReal
 0001:0001FDE0       Variants.@VarFromTDateTime
 0001:0001FDF4       Variants.@VarFromCurr
 0001:0001FE08       Variants.@VarFromLStr
 0001:0001FE34       Variants.@VarFromWStr
 0001:0001FE6C       Variants.@VarFromUStr
 0001:0001FE98       Variants.@VarFromIntf
 0001:0001FEC4       Variants.@VarFromDisp
 0001:0001FEF0       Variants.CheckType
 0001:0001FF1C       Variants.VarCompareAny
 0001:0001FFF4       Variants.EmptyCompare
 0001:00020008       Variants.NullCompare
 0001:000200FC       Variants.IntCompare
 0001:00020110       Variants.Int64Compare
 0001:0002014C       Variants.UInt64Compare
 0001:00020180       Variants.RealCompare
 0001:000201AC       Variants.DateCompare
 0001:000201D8       Variants.CurrCompare
 0001:00020208       Variants.StringCompare
 0001:00020274       Variants.VarCompareSimple
 0001:00020420       Variants.VarCompareRare
 0001:00020844       Variants.VarCompare
 0001:000208AC       Variants.@VarAddRef
 0001:00020B28       Variants.VarTypeAsText
 0001:00020CDC       Variants.FindVarData
 0001:00020CEC       Variants.VarIsClear
 0001:00020D60       Variants.VarSameValue
 0001:00020DD8       Variants.SetVarAsError
 0001:00020DF0       Variants.SetClearVarToEmptyParam
 0001:00020DFC       Variants.GetVarDataArrayInfo
 0001:00020E40       Variants.VarIsArray
 0001:00020E48       Variants.VarIsArray
 0001:00020E98       Variants.ClearVariantTypeList
 0001:00020F04       Variants.TCustomVariantType.BinaryOp
 0001:00020F10       Variants.TCustomVariantType.Cast
 0001:00020F48       Variants.TCustomVariantType.CastTo
 0001:00020F90       Variants.TCustomVariantType.Compare
 0001:00020F9C       Variants.TCustomVariantType.CompareOp
 0001:00020FD4       Variants.TCustomVariantType.CastToOle
 0001:00021010       Variants.TCustomVariantType.Create
 0001:00021054       Variants.TCustomVariantType.Create
 0001:000212D0       Variants.TCustomVariantType.Destroy
 0001:0002135C       Variants.TCustomVariantType.IsClear
 0001:00021360       Variants.TCustomVariantType.LeftPromotion
 0001:00021374       Variants.TCustomVariantType.OlePromotion
 0001:0002137C       Variants.TCustomVariantType.RaiseCastError
 0001:00021384       Variants.TCustomVariantType.RaiseInvalidOp
 0001:0002138C       Variants.TCustomVariantType.RaiseDispError
 0001:00021394       Variants.TCustomVariantType.RightPromotion
 0001:000213A8       Variants.TCustomVariantType.UnaryOp
 0001:000213B0       Variants.TCustomVariantType.DispInvoke
 0001:000213BC       Variants.TCustomVariantType._AddRef
 0001:000213C8       Variants.TCustomVariantType._Release
 0001:000213D4       Variants.TCustomVariantType.QueryInterface
 0001:000213FC       Variants.FindCustomVariantType
 0001:000214B8       Variants.FindCustomVariantType
 0001:0002158C       Variants.Null
 0001:00021594       Variants.@VarCmpEQ
 0001:000215A4       Variants.Finalization
 0001:00021894       TypInfo.GetPropName
 0001:000218E4       TypInfo.GetTypeData
 0001:000218F0       TypInfo.GetEnumName
 0001:000219E8       TypInfo.UTF8SameText
 0001:00021A5C       TypInfo.GetEnumNameValue
 0001:00021AD4       TypInfo.GetEnumValue
 0001:00021B7C       TypInfo.InternalGetPropInfo
 0001:00021C30       TypInfo.GetPropInfo
 0001:00021C84       TypInfo.GetPropInfos
 0001:00021CD8       TypInfo.IsStoredProp
 0001:00021D08       TypInfo.GetOrdProp
 0001:00021D7C       TypInfo.SetOrdProp
 0001:00021DD8       TypInfo.GetSetElementName
 0001:00021E6C       TypInfo.GetSetElementValue
 0001:00021F40       TypInfo.GetShortStrProp
 0001:00021F84       TypInfo.SetShortStrProp
 0001:00021FD8       TypInfo.GetShortStrPropAsLongStr
 0001:00022008       TypInfo.SetShortStrPropAsLongStr
 0001:0002203C       TypInfo.AssignLongStr
 0001:00022054       TypInfo.GetLongStrProp
 0001:00022094       TypInfo.SetLongStrProp
 0001:000220D4       TypInfo.GetWideStrPropAsLongStr
 0001:00022130       TypInfo.SetWideStrPropAsLongStr
 0001:00022188       TypInfo.GetUnicodeStrPropAsLongStr
 0001:000221E4       TypInfo.SetUnicodeStrPropAsLongStr
 0001:0002223C       TypInfo.GetAnsiStrProp
 0001:00022288       TypInfo.SetAnsiStrProp
 0001:000222C4       TypInfo.GetWideStrProp
 0001:000223D8       TypInfo.SetWideStrProp
 0001:000224D4       TypInfo.GetUnicodeStrProp
 0001:000225EC       TypInfo.SetRawByteStrProp
 0001:00022740       TypInfo.SetUnicodeStrProp
 0001:00022864       TypInfo.GetFloatProp
 0001:0002297C       TypInfo.SetFloatProp
 0001:00022B74       TypInfo.AssignVariant
 0001:00022B88       TypInfo.GetVariantProp
 0001:00022BC8       TypInfo.SetVariantProp
 0001:00022C08       TypInfo.GetMethodProp
 0001:00022C48       TypInfo.SetMethodProp
 0001:00022C80       TypInfo.GetInt64Prop
 0001:00022CA8       TypInfo.SetInt64Prop
 0001:00022CE4       TypInfo.GetInterfaceProp
 0001:00022D64       TypInfo.SetInterfaceProp
 0001:00022DD8       TypInfo.Finalization
 0001:00022EB0       Classes..EStreamError
 0001:00022F4C       Classes..EFileStreamError
 0001:00023048       Classes..EFCreateError
 0001:000230E4       Classes..EFOpenError
 0001:0002317C       Classes..EFilerError
 0001:00023214       Classes..EReadError
 0001:000232A8       Classes..EWriteError
 0001:00023340       Classes..EClassNotFound
 0001:000233DC       Classes..EInvalidImage
 0001:00023478       Classes..EListError
 0001:0002350C       Classes..EStringListError
 0001:000235B0       Classes..EComponentError
 0001:000237B4       Classes..TListEnumerator
 0001:00023988       Classes..TList
 0001:0002409C       Classes..TThreadList
 0001:00024354       Classes..TPersistent
 0001:000244CC       Classes..TCollectionItem
 0001:00024738       Classes..TCollectionEnumerator
 0001:000248DC       Classes..TCollection
 0001:00024E34       Classes..TStringsEnumerator
 0001:00024FDC       Classes..TStrings
 0001:00025B54       Classes.TStrings.Clear
 0001:00025B5C       Classes.TStrings.Delete
 0001:00025B64       Classes.TStrings.Insert
 0001:00025C54       Classes..TStringList
 0001:000262D0       Classes..TStream
 0001:000268CC       Classes.TStream.Read
 0001:000268D4       Classes.TStream.Write
 0001:000268DC       Classes..THandleStream
 0001:00026AF4       Classes..TFileStream
 0001:00026CD8       Classes..TCustomMemoryStream
 0001:00026F20       Classes..TMemoryStream
 0001:000271B4       Classes..TClassFinder
 0001:00027588       Classes..TFiler
 0001:00027938       Classes.TFiler.DefineProperty
 0001:00027940       Classes.TFiler.DefineBinaryProperty
 0001:00027948       Classes.TFiler.FlushBuffer
 0001:00027FA0       Classes..TReader
 0001:00028EA8       Classes..TWriter
 0001:000298B4       Classes..TComponentEnumerator
 0001:00029C8C       Classes..TComponent
 0001:0002A5D4       Classes..TBasicActionLink
 0001:0002A7F0       Classes..TBasicAction
 0001:0002ABFC       Classes..TRegGroup
 0001:0002B05C       Classes..TRegGroups
 0001:0002B538       Classes.TRegGroup.AddClass
 0001:0002B544       Classes.TRegGroup.BestClass
 0001:0002B5A4       Classes.TRegGroup.BestGroup
 0001:0002B614       Classes.TRegGroup.Create
 0001:0002B670       Classes.TRegGroup.Destroy
 0001:0002B6B0       Classes.TRegGroup.GetClass
 0001:0002B700       Classes.TRegGroup.GetClasses
 0001:0002B748       Classes.TRegGroup.IndexOfClass
 0001:0002B7C0       Classes.TRegGroup.InGroup
 0001:0002B804       Classes.TRegGroup.RegisterClass
 0001:0002B8B8       Classes.TRegGroup.RegisterClassAlias
 0001:0002B8F0       Classes.TRegGroup.Registered
 0001:0002B908       Classes.TRegGroup.UnregisterClass
 0001:0002B968       Classes.TRegGroup.UnregisterModuleClasses
 0001:0002BAA8       Classes.TRegGroups.Activate
 0001:0002BAF4       Classes.TRegGroups.AddClass
 0001:0002BB14       Classes.TRegGroups.Create
 0001:0002BB88       Classes.TRegGroups.Destroy
 0001:0002BBE8       Classes.TRegGroups.FindGroup
 0001:0002BC2C       Classes.TRegGroups.GetClass
 0001:0002BC70       Classes.TRegGroups.GroupedWith
 0001:0002BC90       Classes.Error
 0001:0002BD14       Classes.TRegGroups.GroupWith
 0001:0002BDE8       Classes.TRegGroups.Lock
 0001:0002BDF4       Classes.TRegGroups.RegisterClass
 0001:0002BE0C       Classes.TRegGroups.RegisterClassAlias
 0001:0002BE2C       Classes.TRegGroups.Registered
 0001:0002BE70       Classes.TRegGroups.StartGroup
 0001:0002BEC0       Classes.TRegGroups.Unlock
 0001:0002BECC       Classes.TRegGroups.UnregisterClass
 0001:0002BEFC       Classes.TRegGroups.UnregisterModuleClasses
 0001:0002BF4C       Classes.TClassFinder.Create
 0001:0002C08C       Classes.TClassFinder.Destroy
 0001:0002C0BC       Classes.TClassFinder.GetClass
 0001:0002C158       Classes.TClassFinder.GetClasses
 0001:0002C1E0       Classes.GetFieldClassTable
 0001:0002C1EC       Classes.ClassNotFound
 0001:0002C258       Classes.GetClass
 0001:0002C2C4       Classes.FindClass
 0001:0002C2E4       Classes.UnRegisterModuleClasses
 0001:0002C34C       Classes.FindIntToIdent
 0001:0002C3C8       Classes.FindIdentToInt
 0001:0002C444       Classes.FindGlobalComponent
 0001:0002C484       Classes.IsUniqueGlobalComponentName
 0001:0002C4A8       Classes.WriteCollection
 0001:0002C514       Classes.CollectionsEqual
 0001:0002C630       Classes.TListEnumerator.Create
 0001:0002C674       Classes.TListEnumerator.GetCurrent
 0001:0002C680       Classes.TListEnumerator.MoveNext
 0001:0002C698       Classes.TList.Destroy
 0001:0002C6B8       Classes.TList.Add
 0001:0002C6F8       Classes.TList.Clear
 0001:0002C710       Classes.TList.Delete
 0001:0002C778       Classes.ReturnAddr
 0001:0002C77C       Classes.TList.Error
 0001:0002C7B4       Classes.TList.Error
 0001:0002C808       Classes.TList.Exchange
 0001:0002C858       Classes.TList.Expand
 0001:0002C870       Classes.TList.First
 0001:0002C878       Classes.TList.Get
 0001:0002C89C       Classes.TList.GetEnumerator
 0001:0002C8AC       Classes.TList.Grow
 0001:0002C8E0       Classes.TList.IndexOf
 0001:0002C904       Classes.TList.IndexOfItem
 0001:0002C930       Classes.TList.Insert
 0001:0002C9A8       Classes.TList.Last
 0001:0002C9CC       Classes.TList.Move
 0001:0002CA24       Classes.TList.Put
 0001:0002CA80       Classes.TList.Remove
 0001:0002CA88       Classes.TList.RemoveItem
 0001:0002CAA8       Classes.TList.Pack
 0001:0002CB1C       Classes.TList.SetCapacity
 0001:0002CB58       Classes.TList.SetCount
 0001:0002CBFC       Classes.QuickSort
 0001:0002CD34       Classes..TList.Sort$ActRec
 0001:0002CDEC       Classes.TList.Sort$ActRec.$0$Body
 0001:0002CDF8       Classes.TList.Sort
 0001:0002CE78       Classes.TList.SortList
 0001:0002CE98       Classes.TList.Extract
 0001:0002CEA0       Classes.TList.ExtractItem
 0001:0002CEF0       Classes.TList.Notify
 0001:0002CEF4       Classes.TList.Assign
 0001:0002D1C0       Classes.TThreadList.Create
 0001:0002D214       Classes.TThreadList.Destroy
 0001:0002D290       Classes.TThreadList.Add
 0001:0002D318       Classes.TThreadList.Clear
 0001:0002D360       Classes.TThreadList.LockList
 0001:0002D374       Classes.TThreadList.Remove
 0001:0002D37C       Classes.TThreadList.RemoveItem
 0001:0002D3D0       Classes.TThreadList.UnlockList
 0001:0002D3DC       Classes.TPersistent.Destroy
 0001:0002D408       Classes.TPersistent.Assign
 0001:0002D41C       Classes.TPersistent.AssignError
 0001:0002D4D8       Classes.TPersistent.AssignTo
 0001:0002D4E0       Classes.TPersistent.DefineProperties
 0001:0002D4E4       Classes.TPersistent.GetNamePath
 0001:0002D57C       Classes.TPersistent.GetOwner
 0001:0002D580       Classes.GetDesigner
 0001:0002D624       Classes.NotifyDesigner
 0001:0002D688       Classes.TCollectionItem.Create
 0001:0002D6C0       Classes.TCollectionItem.Destroy
 0001:0002D6F0       Classes.TCollectionItem.Changed
 0001:0002D714       Classes.TCollectionItem.GetIndex
 0001:0002D72C       Classes.TCollectionItem.GetDisplayName
 0001:0002D740       Classes.TCollectionItem.GetNamePath
 0001:0002D7EC       Classes.TCollectionItem.GetOwner
 0001:0002D7F0       Classes.TCollectionItem.SetCollection
 0001:0002D818       Classes.TCollectionItem.SetDisplayName
 0001:0002D820       Classes.TCollectionItem.SetIndex
 0001:0002D850       Classes.TCollectionEnumerator.Create
 0001:0002D894       Classes.TCollectionEnumerator.GetCurrent
 0001:0002D8A0       Classes.TCollectionEnumerator.MoveNext
 0001:0002D8BC       Classes.TCollection.Create
 0001:0002D908       Classes.TCollection.Destroy
 0001:0002D954       Classes.TCollection.Add
 0001:0002D974       Classes.TCollection.Assign
 0001:0002DA1C       Classes.TCollection.BeginUpdate
 0001:0002DA20       Classes.TCollection.Changed
 0001:0002DA30       Classes.TCollection.Clear
 0001:0002DA98       Classes.TCollection.EndUpdate
 0001:0002DAA4       Classes.TCollection.FindItemID
 0001:0002DAD4       Classes.TCollection.GetAttrCount
 0001:0002DAD8       Classes.TCollection.GetAttr
 0001:0002DAE8       Classes.TCollection.GetEnumerator
 0001:0002DAF8       Classes.TCollection.GetCapacity
 0001:0002DB00       Classes.TCollection.GetItemAttr
 0001:0002DB20       Classes.TCollection.GetCount
 0001:0002DB28       Classes.TCollection.GetItem
 0001:0002DB3C       Classes.TCollection.GetNamePath
 0001:0002DBF0       Classes.TCollection.GetPropName
 0001:0002DD44       Classes.TCollection.Insert
 0001:0002DD60       Classes.TCollection.InsertItem
 0001:0002DDC8       Classes.TCollection.RemoveItem
 0001:0002DE1C       Classes.TCollection.SetCapacity
 0001:0002DE2C       Classes.TCollection.SetItemName
 0001:0002DE30       Classes.TCollection.Update
 0001:0002DE34       Classes.TCollection.Delete
 0001:0002DE64       Classes.TCollection.Owner
 0001:0002DE70       Classes.TCollection.Added
 0001:0002DE74       Classes.TCollection.Deleting
 0001:0002DE78       Classes.TCollection.Notify
 0001:0002DE9C       Classes.TStringsEnumerator.Create
 0001:0002DEE0       Classes.TStringsEnumerator.GetCurrent
 0001:0002DEF8       Classes.TStringsEnumerator.MoveNext
 0001:0002DF14       Classes.TStrings.Destroy
 0001:0002DF44       Classes.TStrings.Add
 0001:0002DF68       Classes.TStrings.AddObject
 0001:0002DF8C       Classes.TStrings.Append
 0001:0002DF98       Classes.TStrings.AddStrings
 0001:0002E050       Classes.TStrings.Assign
 0001:0002E10C       Classes.TStrings.BeginUpdate
 0001:0002E124       Classes.DoWrite
 0001:0002E17C       Classes.TStrings.DefineProperties
 0001:0002E1D4       Classes.TStrings.EndUpdate
 0001:0002E1E8       Classes.TStrings.Equals
 0001:0002E290       Classes.ReturnAddr
 0001:0002E294       Classes.TStrings.Error
 0001:0002E2CC       Classes.TStrings.Error
 0001:0002E324       Classes.TStrings.Exchange
 0001:0002E410       Classes.TStrings.GetCapacity
 0001:0002E418       Classes.TStrings.GetCommaText
 0001:0002E4B0       Classes.TStrings.GetDelimitedText
 0001:0002E720       Classes.TStrings.GetEnumerator
 0001:0002E730       Classes.TStrings.GetObject
 0001:0002E734       Classes.TStrings.GetText
 0001:0002E788       Classes.TStrings.GetTextStr
 0001:0002E920       Classes.TStrings.GetValue
 0001:0002E9D8       Classes.TStrings.IndexOf
 0001:0002EA64       Classes.TStrings.IndexOfName
 0001:0002EB38       Classes.TStrings.IndexOfObject
 0001:0002EB6C       Classes.TStrings.InsertObject
 0001:0002EB9C       Classes.TStrings.LoadFromFile
 0001:0002EBF0       Classes.TStrings.LoadFromFile
 0001:0002EC4C       Classes.TStrings.LoadFromStream
 0001:0002EC58       Classes.TStrings.LoadFromStream
 0001:0002ED4C       Classes.TStrings.Move
 0001:0002EDFC       Classes.TStrings.Put
 0001:0002EE2C       Classes.TStrings.PutObject
 0001:0002EE30       Classes.TStrings.ReadData
 0001:0002EEE0       Classes.TStrings.SaveToFile
 0001:0002EEF0       Classes.TStrings.SaveToFile
 0001:0002EF50       Classes.TStrings.SaveToStream
 0001:0002EF60       Classes.TStrings.SaveToStream
 0001:0002F018       Classes.TStrings.SetCapacity
 0001:0002F01C       Classes.TStrings.SetCommaText
 0001:0002F044       Classes.TStrings.SetStringsAdapter
 0001:0002F078       Classes.TStrings.SetText
 0001:0002F0C8       Classes.TStrings.SetTextStr
 0001:0002F274       Classes.TStrings.SetUpdateState
 0001:0002F278       Classes.TStrings.WriteData
 0001:0002F2FC       Classes.TStrings.SetDelimitedText
 0001:0002F4AC       Classes.TStrings.GetDelimiter
 0001:0002F4C8       Classes.TStrings.GetLineBreak
 0001:0002F504       Classes.TStrings.GetQuoteChar
 0001:0002F520       Classes.TStrings.GetStrictDelimiter
 0001:0002F538       Classes.TStrings.SetDelimiter
 0001:0002F558       Classes.TStrings.SetLineBreak
 0001:0002F584       Classes.TStrings.SetQuoteChar
 0001:0002F5A4       Classes.TStrings.SetStrictDelimiter
 0001:0002F5C0       Classes.TStrings.CompareStrings
 0001:0002F5CC       Classes.TStrings.GetNameValueSeparator
 0001:0002F5E8       Classes.TStrings.SetNameValueSeparator
 0001:0002F608       Classes.TStringList.Destroy
 0001:0002F68C       Classes.TStringList.Add
 0001:0002F69C       Classes.TStringList.AddObject
 0001:0002F700       Classes.TStringList.Changed
 0001:0002F71C       Classes.TStringList.Changing
 0001:0002F738       Classes.TStringList.Clear
 0001:0002F7A0       Classes.TStringList.Delete
 0001:0002F820       Classes.TStringList.Exchange
 0001:0002F87C       Classes.TStringList.ExchangeItems
 0001:0002F8A0       Classes.TStringList.Find
 0001:0002F924       Classes.TStringList.Get
 0001:0002F954       Classes.TStringList.GetCapacity
 0001:0002F958       Classes.TStringList.GetCount
 0001:0002F95C       Classes.TStringList.GetObject
 0001:0002F980       Classes.TStringList.Grow
 0001:0002F9B4       Classes.TStringList.IndexOf
 0001:0002F9F0       Classes.TStringList.Insert
 0001:0002FA00       Classes.TStringList.InsertObject
 0001:0002FA54       Classes.TStringList.InsertItem
 0001:0002FAD0       Classes.TStringList.Put
 0001:0002FB28       Classes.TStringList.PutObject
 0001:0002FB64       Classes.TStringList.QuickSort
 0001:0002FBFC       Classes.TStringList.SetCapacity
 0001:0002FC3C       Classes.TStringList.SetSorted
 0001:0002FC5C       Classes.TStringList.SetUpdateState
 0001:0002FC7C       Classes.StringListCompareStrings
 0001:0002FC9C       Classes.TStringList.Sort
 0001:0002FCAC       Classes.TStringList.CustomSort
 0001:0002FCE4       Classes.TStringList.CompareStrings
 0001:0002FD00       Classes.TStringList.Create
 0001:0002FD38       Classes.TStringList.Create
 0001:0002FD7C       Classes.TStringList.SetCaseSensitive
 0001:0002FDA4       Classes.TStream.GetPosition
 0001:0002FDC4       Classes.TStream.SetPosition
 0001:0002FDD8       Classes.TStream.GetSize
 0001:0002FE24       Classes.TStream.SetSize
 0001:0002FE28       Classes.TStream.SetSize64
 0001:0002FE3C       Classes.TStream.SetSize
 0001:0002FE90       Classes.RaiseException
 0001:0002FF04       Classes.TStream.Seek
 0001:0002FF88       Classes.TStream.Seek
 0001:0002FFF8       Classes.TStream.ReadBuffer
 0001:00030030       Classes.TStream.WriteBuffer
 0001:00030068       Classes.TStream.CopyFrom
 0001:0003015C       Classes.TStream.ReadComponent
 0001:000301BC       Classes.TStream.WriteComponent
 0001:000301C4       Classes.TStream.WriteDescendent
 0001:00030220       Classes.TStream.ReadComponentRes
 0001:0003023C       Classes.TStream.WriteComponentRes
 0001:00030244       Classes.TStream.WriteResourceHeader
 0001:000304D0       Classes.TStream.FixupResourceHeader
 0001:00030594       Classes.TStream.WriteDescendentRes
 0001:000305C8       Classes.TStream.ReadResHeader
 0001:000306B4       Classes.THandleStream.Create
 0001:000306F0       Classes.THandleStream.Read
 0001:00030700       Classes.THandleStream.Write
 0001:00030710       Classes.THandleStream.Seek
 0001:0003073C       Classes.THandleStream.SetSize
 0001:00030750       Classes.THandleStream.SetSize
 0001:00030778       Classes.TFileStream.Create
 0001:000307BC       Classes.TFileStream.Create
 0001:00030930       Classes.TFileStream.Destroy
 0001:00030964       Classes.TCustomMemoryStream.SetPointer
 0001:0003096C       Classes.TCustomMemoryStream.Read
 0001:000309A4       Classes.TCustomMemoryStream.Seek
 0001:000309C8       Classes.TCustomMemoryStream.SaveToStream
 0001:000309E0       Classes.TCustomMemoryStream.SaveToFile
 0001:00030A38       Classes.TMemoryStream.Destroy
 0001:00030A64       Classes.TMemoryStream.Clear
 0001:00030A7C       Classes.TMemoryStream.LoadFromStream
 0001:00030AB4       Classes.TMemoryStream.LoadFromFile
 0001:00030B08       Classes.TMemoryStream.SetCapacity
 0001:00030B30       Classes.TMemoryStream.SetSize
 0001:00030B5C       Classes.TMemoryStream.Realloc
 0001:00030BDC       Classes.TMemoryStream.Write
 0001:00030C2C       Classes.TFiler.Create
 0001:00030C74       Classes.TFiler.Destroy
 0001:00030C9C       Classes.TFiler.SetRoot
 0001:00030CA0       Classes..TPropFixup
 0001:00030ECC       Classes..TPropIntfFixup
 0001:00030FB4       Classes.TPropFixup.Create
 0001:0003100C       Classes.TPropFixup.MakeGlobalReference
 0001:0003106C       Classes.TPropFixup.ResolveReference
 0001:0003107C       Classes.TPropIntfFixup.ResolveReference
 0001:00031100       Classes.FindNestedComponent
 0001:000311F8       Classes.AddFinished
 0001:00031230       Classes.AddNotFinished
 0001:00031278       Classes.GlobalFixupReferences
 0001:0003144C       Classes.RemoveFixupReferences
 0001:00031500       Classes.RemoveFixups
 0001:00031594       Classes.ReadError
 0001:000315AC       Classes.PropValueError
 0001:000315B8       Classes.PropertyNotFound
 0001:000315E4       Classes.SetElementValue
 0001:000315FC       Classes.TReader.Destroy
 0001:00031638       Classes.TReader.BeginReferences
 0001:000316A0       Classes.TReader.CheckValue
 0001:000316C4       Classes.TReader.DefineProperty
 0001:00031700       Classes.TReader.DefineBinaryProperty
 0001:000317E8       Classes.TReader.EndOfList
 0001:000317FC       Classes.TReader.EndReferences
 0001:00031818       Classes.TReader.Error
 0001:0003183C       Classes.TReader.FindMethodInstance
 0001:000318AC       Classes.TReader.FindMethod
 0001:000318FC       Classes.RemoveGlobalFixup
 0001:00031984       Classes.TReader.DoFixupReferences
 0001:00031AC8       Classes.TReader.FixupReferences
 0001:00031B00       Classes.TReader.FlushBuffer
 0001:00031B24       Classes.TReader.FreeFixups
 0001:00031B60       Classes.TReader.GetFieldClass
 0001:00031BF4       Classes.TReader.GetPosition
 0001:00031C0C       Classes.TReader.NextValue
 0001:00031C1C       Classes.TReader.PropertyError
 0001:00031C30       Classes.TReader.Read
 0001:00031C7C       Classes.TReader.ReadBuffer
 0001:00031CB8       Classes.TReader.ReadBoolean
 0001:00031CCC       Classes.TReader.ReadChar
 0001:00031D60       Classes.TReader.ReadWideChar
 0001:00031DC0       Classes.TReader.ReadCollection
 0001:00031E9C       Classes.AddSubComponentsToLoaded
 0001:00031ED8       Classes.CheckSubComponents
 0001:00031F50       Classes.SetSubComponentState
 0001:00031FB8       Classes.ComponentCreated
 0001:00031FD8       Classes.Recover
 0001:00032038       Classes.CreateComponent
 0001:00032148       Classes.SetCompName
 0001:000321E8       Classes.FindExistingComponent
 0001:0003228C       Classes.TReader.ReadComponent
 0001:000324CC       Classes.TReader.ReadData
 0001:0003253C       Classes.TReader.ReadDataInner
 0001:0003260C       Classes.TReader.ReadFloat
 0001:00032644       Classes.TReader.ReadDouble
 0001:00032688       Classes.TReader.ReadSingle
 0001:000326CC       Classes.TReader.ReadCurrency
 0001:0003271C       Classes.TReader.ReadDate
 0001:00032760       Classes.TReader.ReadIdent
 0001:000328F8       Classes.TReader.ReadInteger
 0001:00032964       Classes.TReader.ReadInt64
 0001:000329A8       Classes.TReader.ReadListBegin
 0001:000329B0       Classes.TReader.ReadListEnd
 0001:000329B8       Classes.TReader.ReadPrefix
 0001:000329F8       Classes.HandleException
 0001:00032AC8       Classes.PropPathError
 0001:00032AE4       Classes.TReader.ReadProperty
 0001:00032D5C       Classes.SetIntIdent
 0001:00032DA4       Classes.SetObjectIdent
 0001:00032DE4       Classes.SetVariantReference
 0001:00032E40       Classes.SetInterfaceReference
 0001:00032F00       Classes.TReader.ReadPropValue
 0001:00033264       Classes.FindUniqueName
 0001:000332CC       Classes.TReader.ReadRootComponent
 0001:00033600       Classes.TReader.ReadComponents
 0001:000336F0       Classes.TReader.ReadSet
 0001:000337AC       Classes.TReader.ReadSignature
 0001:000337D0       Classes.TReader.ReadStr
 0001:00033860       Classes.TReader.ReadString
 0001:00033948       Classes.TReader.ReadWideString
 0001:00033A88       Classes.TReader.ReadValue
 0001:00033A9C       Classes.TReader.SetPosition
 0001:00033ABC       Classes.TReader.SkipSetBody
 0001:00033B04       Classes.SkipList
 0001:00033B30       Classes.SkipBinary
 0001:00033B60       Classes.SkipCollection
 0001:00033BC4       Classes.TReader.SkipValue
 0001:00033D74       Classes.CopySetBody
 0001:00033DFC       Classes.CopyList
 0001:00033E48       Classes.CopyBytes
 0001:00033ED8       Classes.CopyBinary
 0001:00033F30       Classes.TReader.CopyValue
 0001:00034118       Classes.TReader.SkipProperty
 0001:00034160       Classes.TReader.SkipComponent
 0001:0003420C       Classes.TReader.FindAncestorComponent
 0001:000342C4       Classes.TReader.ReferenceName
 0001:000342DC       Classes.TReader.SetName
 0001:00034304       Classes.TReader.FindComponentClass
 0001:00034378       Classes.TReader.SkipBytes
 0001:000343C0       Classes.ReadCustomVariant
 0001:00034588       Classes.TReader.ReadVariant
 0001:000347A8       Classes.TWriter.Destroy
 0001:000347D4       Classes.TWriter.AddAncestor
 0001:000347E0       Classes.TWriter.DefineProperty
 0001:00034808       Classes.TWriter.DefineBinaryProperty
 0001:00034834       Classes.TWriter.GetPosition
 0001:00034844       Classes.TWriter.FindMethodName
 0001:0003488C       Classes.TWriter.FlushBuffer
 0001:00034894       Classes.TWriter.SetPosition
 0001:000348D0       Classes.TWriter.SetRoot
 0001:000348E8       Classes.TWriter.Write
 0001:00034934       Classes.TWriter.WriteBinary
 0001:000349BC       Classes.TWriter.WriteBuffer
 0001:000349D4       Classes.TWriter.WriteBoolean
 0001:000349E8       Classes.TWriter.WriteChar
 0001:00034A38       Classes.TWriter.WriteWideChar
 0001:00034A88       Classes.TWriter.WriteCollection
 0001:00034B28       Classes.FindAncestor
 0001:00034B78       Classes.TWriter.WriteComponent
 0001:00034CCC       Classes.TWriter.WriteData
 0001:0003508C       Classes.TWriter.WriteDescendent
 0001:000350B4       Classes.TWriter.WriteFloat
 0001:000350D8       Classes.TWriter.WriteSingle
 0001:000350FC       Classes.TWriter.WriteDouble
 0001:00035120       Classes.TWriter.WriteCurrency
 0001:00035144       Classes.TWriter.WriteDate
 0001:00035168       Classes.TWriter.WriteIdent
 0001:0003524C       Classes.TWriter.WriteInteger
 0001:000352C0       Classes.TWriter.WriteInteger
 0001:00035318       Classes.TWriter.WriteListBegin
 0001:00035320       Classes.TWriter.WriteListEnd
 0001:00035328       Classes.TWriter.WritePrefix
 0001:00035370       Classes.TWriter.WriteProperties
 0001:00035438       Classes.AncestorIsValid
 0001:00035450       Classes.IsDefaultOrdProp
 0001:000354A8       Classes.IsDefaultFloatProp
 0001:00035504       Classes.IsDefaultInt64Prop
 0001:0003555C       Classes.IsDefaultStrProp
 0001:000355EC       Classes.ObjectAncestorMatch
 0001:0003562C       Classes.IsDefault
 0001:00035684       Classes.IsDefaultObjectProp
 0001:00035704       Classes.IsDefaultValue
 0001:000357D0       Classes.IsDefaultInterfaceProp
 0001:000358AC       Classes.FindMethodName
 0001:00035904       Classes.IsDefaultMethodProp
 0001:000359A4       Classes.IsDefaultVariantProp
 0001:00035A3C       Classes.IsDefaultPropertyValue
 0001:00035BA0       Classes.WritePropPath
 0001:00035BF8       Classes.WriteSet
 0001:00035C8C       Classes.WriteIntProp
 0001:00035CF8       Classes.WriteCollectionProp
 0001:00035D9C       Classes.WriteOrdProp
 0001:00035E94       Classes.WriteFloatProp
 0001:00035ED4       Classes.WriteInt64Prop
 0001:00035F10       Classes.WriteStrProp
 0001:00035F88       Classes.OwnedBy
 0001:00035FA0       Classes.GetComponentValue
 0001:000360E4       Classes.WriteObjectProp
 0001:000362F8       Classes.WriteInterfaceProp
 0001:000363D4       Classes.WriteMethodProp
 0001:00036464       Classes.WriteVariantProp
 0001:000364C8       Classes.TWriter.WriteProperty
 0001:0003661C       Classes.TWriter.WriteVariant
 0001:000369FC       Classes.TWriter.WritePropName
 0001:00036A50       Classes.TWriter.WriteRootComponent
 0001:00036A58       Classes.TWriter.WriteSignature
 0001:00036A68       Classes.TWriter.WriteStr
 0001:00036B24       Classes.TWriter.WriteMinStr
 0001:00036C58       Classes.TWriter.WriteString
 0001:00036D70       Classes.TWriter.WriteUTF8Str
 0001:00036E44       Classes.TWriter.WriteWideString
 0001:00036E4C       Classes.TWriter.WriteValue
 0001:00036E60       Classes.TWriter.GetLookupInfo
 0001:00036E84       Classes.BinToHex
 0001:00036EC0       Classes.WriteIndent
 0001:00036EEC       Classes.WriteStr
 0001:00036F84       Classes.WriteUTF8Str
 0001:00037054       Classes.NewLine
 0001:00037084       Classes.ConvertHeader
 0001:00037288       Classes.ConvertBinary
 0001:00037360       Classes.ConvertValue
 0001:00037E64       Classes.ConvertProperty
 0001:00037F18       Classes.ConvertObject
 0001:00037FA8       Classes.ObjectBinaryToText
 0001:00038134       Classes.TComponentEnumerator.Create
 0001:00038178       Classes.TComponentEnumerator.GetCurrent
 0001:00038184       Classes.TComponentEnumerator.MoveNext
 0001:000381A0       Classes.TComponent.Create
 0001:000381EC       Classes.TComponent.Destroy
 0001:00038234       Classes.TComponent.BeforeDestruction
 0001:00038240       Classes.TComponent.RemoveFreeNotifications
 0001:00038280       Classes.TComponent.FreeNotification
 0001:000382D4       Classes.TComponent.ReadLeft
 0001:000382E8       Classes.TComponent.ReadTop
 0001:000382FC       Classes.TComponent.WriteLeft
 0001:00038308       Classes.TComponent.WriteTop
 0001:00038314       Classes.TComponent.Insert
 0001:00038350       Classes.TComponent.Remove
 0001:000383C8       Classes.TComponent.InsertComponent
 0001:0003842C       Classes.TComponent.RemoveComponent
 0001:00038464       Classes.TComponent.DestroyComponents
 0001:000384D0       Classes.TComponent.Destroying
 0001:0003850C       Classes.TComponent.RemoveNotification
 0001:00038564       Classes.TComponent.RemoveFreeNotification
 0001:00038580       Classes.TComponent.Notification
 0001:000385E0       Classes.TComponent.DefineProperties
 0001:00038678       Classes.TComponent.HasParent
 0001:0003867C       Classes.TComponent.GetChildren
 0001:00038684       Classes.TComponent.GetChildOwner
 0001:00038688       Classes.TComponent.GetChildParent
 0001:0003868C       Classes.TComponent.GetEnumerator
 0001:0003869C       Classes.TComponent.GetNamePath
 0001:000386B0       Classes.TComponent.GetOwner
 0001:000386B4       Classes.TComponent.SetChildOrder
 0001:000386B8       Classes.TComponent.GetParentComponent
 0001:000386BC       Classes.TComponent.SetParentComponent
 0001:000386C0       Classes.TComponent.Updating
 0001:000386CC       Classes.TComponent.Updated
 0001:000386D8       Classes.TComponent.Loaded
 0001:000386E4       Classes.TComponent.PaletteCreated
 0001:000386E8       Classes.TComponent.ReadState
 0001:000386F0       Classes.TComponent.WriteState
 0001:000386F8       Classes.TComponent.ValidateRename
 0001:00038780       Classes.TComponent.ValidateContainer
 0001:00038794       Classes.TComponent.ValidateInsert
 0001:000387F0       Classes..TComponent.FindComponent$ActRec
 0001:000388A8       Classes.TComponent.FindComponent$ActRec.$0$Body
 0001:000388B4       Classes.TComponent.FindComponent
 0001:000389A0       Classes.TComponent.FindSortedComponent
 0001:00038A18       Classes.TComponent.AddSortedComponent
 0001:00038A3C       Classes.TComponent.SetName
 0001:00038ACC       Classes.TComponent.ChangeName
 0001:00038B04       Classes.TComponent.GetComponentIndex
 0001:00038B20       Classes.TComponent.GetComponent
 0001:00038B4C       Classes.TComponent.GetComponentCount
 0001:00038B5C       Classes.TComponent.SetComponentIndex
 0001:00038BB0       Classes.TComponent.SetDesigning
 0001:00038C00       Classes.TComponent.SetReference
 0001:00038C28       Classes.TComponent.ExecuteAction
 0001:00038C50       Classes.TComponent.UpdateAction
 0001:00038C78       Classes.TComponent.SetSubComponent
 0001:00038C8C       Classes.TComponent.GetComObject
 0001:00038D44       Classes.TComponent.SafeCallException
 0001:00038D5C       Classes.TComponent.FreeOnRelease
 0001:00038D6C       Classes.TComponent.UpdateRegistry
 0001:00038D74       Classes.TComponent.QueryInterface
 0001:00038DB4       Classes.TComponent._AddRef
 0001:00038DD4       Classes.TComponent._Release
 0001:00038DF4       Classes.TComponent.IntfGetComponent
 0001:00038DF8       Classes.TComponent.IsImplementorOf
 0001:00038E78       Classes.TComponent.ReferenceInterface
 0001:00038F20       Classes.TBasicActionLink.Create
 0001:00038F64       Classes.TBasicActionLink.AssignClient
 0001:00038F68       Classes.TBasicActionLink.Destroy
 0001:00038F9C       Classes.TBasicActionLink.Change
 0001:00038FB4       Classes.TBasicActionLink.Execute
 0001:00038FD0       Classes.TBasicActionLink.SetAction
 0001:00038FFC       Classes.TBasicActionLink.IsOnExecuteLinked
 0001:00039000       Classes.TBasicActionLink.SetOnExecute
 0001:00039008       Classes.TBasicActionLink.Update
 0001:00039014       Classes.TBasicAction.Create
 0001:00039058       Classes.TBasicAction.Destroy
 0001:000390C0       Classes.TBasicAction.HandlesTarget
 0001:000390C4       Classes.TBasicAction.ExecuteTarget
 0001:000390C8       Classes.TBasicAction.Notification
 0001:000390F0       Classes.TBasicAction.UpdateTarget
 0001:000390F4       Classes.TBasicAction.Execute
 0001:00039110       Classes.TBasicAction.Update
 0001:0003912C       Classes.TBasicAction.SetOnExecute
 0001:00039188       Classes.TBasicAction.Change
 0001:0003919C       Classes.TBasicAction.RegisterChanges
 0001:000391A8       Classes.TBasicAction.UnRegisterChanges
 0001:000391E8       Classes.TBasicAction.SetActionComponent
 0001:00039214       Classes.FreeIntConstList
 0001:0003928C       Classes.ModuleUnload
 0001:00039294       Classes.CleanupInstFreeList
 0001:000392D0       Classes.GetFreeInstBlockItemCount
 0001:00039300       Classes.ReleaseObjectInstanceBlocks
 0001:00039364       Classes.EFileStreamError.Create
 0001:00039414       Classes.Finalization
 0001:000394E4       Contnrs..TObjectList
 0001:00039950       Contnrs.TObjectList.Add
 0001:00039958       Contnrs.TObjectList.Create
 0001:00039994       Contnrs.TObjectList.Create
 0001:000399D8       Contnrs.TObjectList.Extract
 0001:000399EC       Contnrs.TObjectList.ExtractItem
 0001:00039A04       Contnrs.TObjectList.FindInstanceOf
 0001:00039A8C       Contnrs.TObjectList.First
 0001:00039A9C       Contnrs.TObjectList.GetItem
 0001:00039AB0       Contnrs.TObjectList.IndexOf
 0001:00039AB8       Contnrs.TObjectList.IndexOfItem
 0001:00039AC0       Contnrs.TObjectList.Insert
 0001:00039AC8       Contnrs.TObjectList.Last
 0001:00039AD4       Contnrs.TObjectList.Notify
 0001:00039B00       Contnrs.TObjectList.Remove
 0001:00039B08       Contnrs.TObjectList.RemoveItem
 0001:00039B10       SyncObjs..TSynchroObject
 0001:00039C14       SyncObjs..TCriticalSection
 0001:00039E1C       SyncObjs.TSynchroObject.Acquire
 0001:00039E20       SyncObjs.TSynchroObject.Release
 0001:00039E24       SyncObjs.TCriticalSection.Create
 0001:00039E64       SyncObjs.TCriticalSection.Destroy
 0001:00039E94       SyncObjs.TCriticalSection.Acquire
 0001:00039EA0       SyncObjs.TCriticalSection.Release
 0001:00039EAC       SyncObjs.TCriticalSection.TryEnter
 0001:00039EC0       SyncObjs.TCriticalSection.Enter
 0001:00039EC8       SyncObjs.TCriticalSection.Leave
 0001:00039ED0       SyncObjs.InternalInitConditionVariable
 0001:00039EE0       SyncObjs.InternalWakeConditionVariable
 0001:00039EF0       SyncObjs.InternalWakeAllConditionVariable
 0001:00039F00       SyncObjs.InternalSleepConditionVariableCS
 0001:00039F1C       SyncObjs.TInternalConditionVariable.DequeueWaiter
 0001:00039F74       SyncObjs.TInternalConditionVariable.DequeueWaiterNoLock
 0001:00039F90       SyncObjs.TInternalConditionVariable.LockQueue
 0001:00039FF4       SyncObjs.TInternalConditionVariable.QueueWaiter
 0001:0003A05C       SyncObjs.TInternalConditionVariable.RemoveWaiter
 0001:0003A0E8       SyncObjs.TInternalConditionVariable.SleepCriticalSection
 0001:0003A1E0       SyncObjs.TInternalConditionVariable.UnlockQueue
 0001:0003A1E8       SyncObjs.TInternalConditionVariable.Wake
 0001:0003A1FC       SyncObjs.TInternalConditionVariable.WakeAll
 0001:0003A270       SyncObjs.InitConditionVariableProcs
 0001:0003A3DC       SyncObjs.Finalization
 0001:0003AC80       JclResources.Finalization
 0001:0003AC94       JclBase..EJclError
 0001:0003AD28       JclBase..EJclInternalError
 0001:0003B024       JclBase.LoadAnsiReplacementCharacter
 0001:0003B060       JclBase.Finalization
 0001:0003B074       JclWin32..EJclWin32Error
 0001:0003BFD4       JclWin32.GetProcedureAddress
 0001:0003C0C4       JclWin32.EJclWin32Error.Create
 0001:0003C1A0       JclWin32.EJclWin32Error.CreateFmt
 0001:0003C29C       JclWin32.EJclWin32Error.CreateRes
 0001:0003C390       JclWin32.EJclWin32Error.CreateRes
 0001:0003C484       JclWin32.CheckSumMappedFile
 0001:0003C514       JclWin32.GetImageUnusedHeaderBytes
 0001:0003C5A8       JclWin32.MapAndLoad
 0001:0003C62C       JclWin32.UnMapAndLoad
 0001:0003C6A4       JclWin32.ImageDirectoryEntryToData
 0001:0003C740       JclWin32.ImageRvaToSection
 0001:0003C7C8       JclWin32.ImageRvaToVa
 0001:0003C84C       JclWin32.CreateMutex
 0001:0003C854       JclWin32.GetVersionEx
 0001:0003C85C       JclWin32.IMAGE_ORDINAL64
 0001:0003C884       JclWin32.IMAGE_ORDINAL32
 0001:0003C88C       JclWin32.CreateToolhelp32Snapshot
 0001:0003C920       JclWin32.Finalization
 0001:0003CAD0       JclLogic.Min
 0001:0003CAD8       JclLogic.Finalization
 0001:0003CAEC       AnsiStrings.Finalization
 0001:0003CB10       JclStringConversions..EJclStringConversionError
 0001:0003CBD0       JclStringConversions..EJclUnexpectedEOSequenceError
 0001:0003CE7C       JclStringConversions.EJclUnexpectedEOSequenceError.Create
 0001:0003CEB8       JclStringConversions.FlagInvalidSequence
 0001:0003CEC8       JclStringConversions.UTF8GetNextChar
 0001:0003D3B8       JclStringConversions.UTF8SetNextChar
 0001:0003D750       JclStringConversions.UTF16GetNextChar
 0001:0003D820       JclStringConversions.UTF16SetNextChar
 0001:0003D8EC       JclStringConversions.UTF8ToUTF16
 0001:0003D9CC       JclStringConversions.TryUTF8ToUTF16
 0001:0003DAC4       JclStringConversions.TryUTF16ToUTF8
 0001:0003DB7C       JclStringConversions.Finalization
 0001:00040504       JclCharsets.Finalization
 0001:000406F0       Jcl8087.Finalization
 0001:000408E0       JclMath.Finalization
 0001:00040950       ComObj..EOleError
 0001:000409E4       ComObj..EOleSysError
 0001:00040B30       ComObj..EOleException
 0001:00040D60       ComObj.TrimPunctuation
 0001:00040DBC       ComObj.EOleSysError.Create
 0001:00040E90       ComObj.EOleException.Create
 0001:00040F28       ComObj.OleError
 0001:00040F44       ComObj.OleCheck
 0001:00040F54       ComObj.LoadComExProcs
 0001:000410D8       ComObj.CreateSafeCallErrorExceptionObject
 0001:000411D0       ComObj.SafeCallError
 0001:000411E0       ComObj.DispatchInvoke
 0001:0004151C       ComObj.RaiseNameException
 0001:00041550       ComObj.GetIDsOfNames
 0001:00041634       ComObj.RaiseException
 0001:0004164C       ComObj.VarDispInvoke
 0001:000416E8       ComObj.DispCallError
 0001:000417BC       ComObj.DispatchInvokeError
 0001:000417C8       ComObj.ClearExcepInfo
 0001:000417D8       ComObj.DispCall
 0001:000418BC       ComObj.DispCallByID
 0001:00041998       ComObj.InitComObj
 0001:00041A14       ComObj.Finalization
 0001:00041C30       Snmp.InitializeSnmp
 0001:00041C34       Snmp.FinalizeSnmp
 0001:00041C38       Snmp.Finalization
 0001:00041C50       TlHelp32.InitToolHelp
 0001:00042014       TlHelp32.Module32First
 0001:00042034       TlHelp32.Module32Next
 0001:00042054       PsAPI.CheckPSAPILoaded
 0001:00042534       PsAPI.EnumProcessModules
 0001:00042564       PsAPI.GetModuleFileNameEx
 0001:00042594       PsAPI.GetModuleInformation
 0001:00042764       JclStrings.LoadCharTypes
 0001:000427A4       JclStrings.LoadCaseMap
 0001:0004282C       JclStrings.StrCase
 0001:0004288C       JclStrings.StrSame
 0001:000428AC       JclStrings.StrEnsureNoSuffix
 0001:000429A4       JclStrings.StrEnsureSuffix
 0001:00042A94       JclStrings.StrReplaceChar
 0001:00042B44       JclStrings.StrUpper
 0001:00042B60       JclStrings.StrUpperInPlace
 0001:00042B6C       JclStrings.StrResetLength
 0001:00042BA4       JclStrings.StrResetLength
 0001:00042BF0       JclStrings.StrResetLength
 0001:00042C3C       JclStrings.StrCompareRangeEx
 0001:00042E5C       JclStrings.StrCompare
 0001:00042F2C       JclStrings.StrFind
 0001:00042FE8       JclStrings.StrIPos
 0001:00043050       JclStrings.StrBefore
 0001:00043084       JclStrings.StrLeft
 0001:000430A0       JclStrings.StrMid
 0001:000430C4       JclStrings.CharIsDigit
 0001:000430D4       JclStrings.CharIsHexDigit
 0001:000430FC       JclStrings.CharIsLower
 0001:0004310C       JclStrings.CharIsReturn
 0001:00043120       JclStrings.CharIsUpper
 0001:00043130       JclStrings.CharIsValidIdentifierLetter
 0001:000431EC       JclStrings.CharIsWhiteSpace
 0001:00043204       JclStrings.CharLower
 0001:00043210       JclStrings.CharLastPos
 0001:000432E4       JclStrings.CharPos
 0001:000433B4       JclStrings.StrToStrings
 0001:00043600       JclStrings.StringsToStr
 0001:00043744       JclStrings.Finalization
 0001:00043CFC       JclRegistry.Finalization
 0001:00043DA8       IOUtils.TPath.Destroy@
 0001:00043DB0       IOUtils.Finalization
 0001:00043E78       IniFiles.Finalization
 0001:0004406C       JclIniFiles.Finalization
 0001:00044220       JclSysInfo.ExpandEnvironmentVar
 0001:000442C0       JclSysInfo.GetEnvironmentVar
 0001:000442E8       JclSysInfo.GetEnvironmentVar
 0001:0004436C       JclSysInfo.GetCurrentFolder
 0001:000443D8       JclSysInfo.AddToList
 0001:000444A4       JclSysInfo.EnumModulesVQ
 0001:0004452C       JclSysInfo.EnumModulesPS
 0001:0004464C       JclSysInfo.EnumModulesTH
 0001:00044778       JclSysInfo.LoadedModulesList
 0001:000447E4       JclSysInfo.ModuleFromAddr
 0001:00044810       JclSysInfo.IsSystemModule
 0001:00044834       JclSysInfo.GetWindowsVersion
 0001:00044A7C       JclSysInfo.GetNativeSystemInfo
 0001:00044B04       JclSysInfo.UnloadSystemResourcesMeterLib
 0001:00044B28       JclSysInfo.InitSysInfo
 0001:00044D30       JclSysInfo.FinalizeSysInfo
 0001:00045210       JclSysInfo.Finalization
 0001:00047BFC       JclUnicode.CodePageFromLocale
 0001:00047C70       JclUnicode.CompareTextWin95
 0001:00047DC4       JclUnicode.CompareTextWinNT
 0001:00047E18       JclUnicode.PrepareUnicodeData
 0001:00047E4C       JclUnicode.FreeUnicodeData
 0001:00047E60       JclUnicode.Finalization
 0001:000480FC       JclWideStrings.Finalization
 0001:000482B4       JclShell.Finalization
 0001:0004847C       JclSecurity.Finalization
 0001:00048490       JclDateTime..EJclDateTimeError
 0001:000486DC       JclDateTime.ResultCheck
 0001:000486F8       JclDateTime.FileTimeToDateTime
 0001:00048724       JclDateTime.FileTimeToLocalDateTime
 0001:0004875C       JclDateTime.Finalization
 0001:00048858       JclFileUtils..EJclFileVersionInfoError
 0001:00048990       JclFileUtils..TJclFileVersionInfo
 0001:000493B4       JclFileUtils..TJclFileMappingStream
 0001:0004957C       JclFileUtils..EJclFileMappingError
 0001:0004962C       JclFileUtils..EJclFileMappingViewError
 0001:00049888       JclFileUtils.TJclFileMappingStream.Create
 0001:000499BC       JclFileUtils.TJclFileMappingStream.Destroy
 0001:000499E8       JclFileUtils.TJclFileMappingStream.Close
 0001:00049A2C       JclFileUtils.TJclFileMappingStream.Write
 0001:00049AA8       JclFileUtils.PathAddSeparator
 0001:00049B70       JclFileUtils.PathExtractFileNameNoExt
 0001:00049BC0       JclFileUtils.PathRemoveExtension
 0001:00049C78       JclFileUtils.FileExists
 0001:00049C9C       JclFileUtils.GetModulePath
 0001:00049EB0       JclFileUtils.WindowToModuleFileName
 0001:0004A2C4       JclFileUtils.FormatVersionString
 0001:0004A320       JclFileUtils.VersionFixedFileInfo
 0001:0004A3EC       JclFileUtils.TJclFileVersionInfo.Attach
 0001:0004A450       JclFileUtils.TJclFileVersionInfo.Create
 0001:0004A524       JclFileUtils.TJclFileVersionInfo.Create
 0001:0004A59C       JclFileUtils.TJclFileVersionInfo.Create
 0001:0004A648       JclFileUtils.TJclFileVersionInfo.Destroy
 0001:0004A690       JclFileUtils.TJclFileVersionInfo.FileHasVersionInfo
 0001:0004A6AC       JclFileUtils.TJclFileVersionInfo.CheckLanguageIndex
 0001:0004A6DC       JclFileUtils.TJclFileVersionInfo.CreateItemsForLanguage
 0001:0004A77C       JclFileUtils.Padding
 0001:0004A788       JclFileUtils.GetHeader
 0001:0004A880       JclFileUtils.FixKeyValue
 0001:0004A91C       JclFileUtils.ProcessStringInfo
 0001:0004AC6C       JclFileUtils.ProcessVarInfo
 0001:0004AD14       JclFileUtils.TJclFileVersionInfo.ExtractData
 0001:0004B01C       JclFileUtils.TJclFileVersionInfo.ExtractFlags
 0001:0004B084       JclFileUtils.TJclFileVersionInfo.GetBinFileVersion
 0001:0004B110       JclFileUtils.TJclFileVersionInfo.GetBinProductVersion
 0001:0004B19C       JclFileUtils.TJclFileVersionInfo.GetCustomFieldValue
 0001:0004B208       JclFileUtils.TJclFileVersionInfo.GetFileOS
 0001:0004B210       JclFileUtils.TJclFileVersionInfo.GetFileSubType
 0001:0004B218       JclFileUtils.TJclFileVersionInfo.GetFileType
 0001:0004B220       JclFileUtils.TJclFileVersionInfo.GetFileVersionBuild
 0001:0004B2E4       JclFileUtils.TJclFileVersionInfo.GetFileVersionMajor
 0001:0004B388       JclFileUtils.TJclFileVersionInfo.GetFileVersionMinor
 0001:0004B444       JclFileUtils.TJclFileVersionInfo.GetFileVersionRelease
 0001:0004B510       JclFileUtils.TJclFileVersionInfo.GetFixedInfo
 0001:0004B524       JclFileUtils.TJclFileVersionInfo.GetItems
 0001:0004B528       JclFileUtils.TJclFileVersionInfo.GetLanguageCount
 0001:0004B534       JclFileUtils.TJclFileVersionInfo.GetTranslationCount
 0001:0004B540       JclFileUtils.TJclFileVersionInfo.GetProductVersionBuild
 0001:0004B604       JclFileUtils.TJclFileVersionInfo.GetProductVersionMajor
 0001:0004B6A8       JclFileUtils.TJclFileVersionInfo.GetProductVersionMinor
 0001:0004B764       JclFileUtils.TJclFileVersionInfo.GetProductVersionRelease
 0001:0004B830       JclFileUtils.TJclFileVersionInfo.GetVersionKeyValue
 0001:0004B854       JclFileUtils.TJclFileVersionInfo.SetLanguageIndex
 0001:0004B878       JclFileUtils.TJclFileVersionInfo.TranslationMatchesLanguages
 0001:0004B900       JclFileUtils.TJclFileVersionInfo.VersionLanguageId
 0001:0004B960       JclFileUtils.TJclFileVersionInfo.VersionLanguageName
 0001:0004B994       JclFileUtils.Finalization
 0001:0004BB8C       JclConsole.Finalization
 0001:0004BBA0       JclSysUtils..ESharedMemError
 0001:0004BC44       JclSysUtils..TJclReferenceMemoryStream
 0001:0004BDF4       JclSysUtils..TJclIntfCriticalSection
 0001:0004C178       JclSysUtils.ResetMemory
 0001:0004C234       JclSysUtils.GetAccessToHandleList
 0001:0004C28C       JclSysUtils.SharedGetMem
 0001:0004C4A4       JclSysUtils.SharedFreeMem
 0001:0004C56C       JclSysUtils.SharedCloseMem
 0001:0004C574       JclSysUtils.ArrayItemPointer
 0001:0004C58C       JclSysUtils.QuickSort
 0001:0004C6E0       JclSysUtils.SortDynArray
 0001:0004C760       JclSysUtils.SearchDynArray
 0001:0004C7EC       JclSysUtils.TJclReferenceMemoryStream.Create
 0001:0004C964       JclSysUtils.TJclReferenceMemoryStream.Write
 0001:0004C97C       JclSysUtils.InheritsFromByName
 0001:0004C9D4       JclSysUtils.UnloadModule
 0001:0004C9EC       JclSysUtils.TJclIntfCriticalSection.Create
 0001:0004CA30       JclSysUtils.TJclIntfCriticalSection.Destroy
 0001:0004CA60       JclSysUtils.TJclIntfCriticalSection._AddRef
 0001:0004CA74       JclSysUtils.TJclIntfCriticalSection._Release
 0001:0004CA88       JclSysUtils.TJclIntfCriticalSection.QueryInterface
 0001:0004CAB0       JclSysUtils.Finalization
 0001:0004CCD4       JclStreams.Finalization
 0001:0004CE90       JclAnsiStrings.LoadCharTypes
 0001:0004CECC       JclAnsiStrings.LoadCaseMap
 0001:0004CF4C       JclAnsiStrings.CharIsLower
 0001:0004CF5C       JclAnsiStrings.CharIsUpper
 0001:0004CF6C       JclAnsiStrings.Finalization
 0001:0004CFE4       JclSynch..TJclDispatcherObject
 0001:0004D2E0       JclSynch..TJclCriticalSection
 0001:0004D4A8       JclSynch..TJclMutex
 0001:0004D668       JclSynch..EJclMutexError
 0001:0004D8A4       JclSynch.LockedCompareExchange
 0001:0004D8AC       JclSynch.MapSignalResult
 0001:0004D8E0       JclSynch.TJclDispatcherObject.Attach
 0001:0004D92C       JclSynch.TJclDispatcherObject.Destroy
 0001:0004D95C       JclSynch.TJclDispatcherObject.SignalAndWait
 0001:0004D98C       JclSynch.TJclDispatcherObject.WaitAlertable
 0001:0004D9A8       JclSynch.TJclDispatcherObject.WaitFor
 0001:0004D9C0       JclSynch.TJclDispatcherObject.WaitForever
 0001:0004D9CC       JclSynch.TJclCriticalSection.Create
 0001:0004DA0C       JclSynch.TJclCriticalSection.Destroy
 0001:0004DA3C       JclSynch.TJclCriticalSection.CreateAndEnter
 0001:0004DA70       JclSynch.TJclCriticalSection.Enter
 0001:0004DA7C       JclSynch.TJclCriticalSection.Leave
 0001:0004DA88       JclSynch.TJclMutex.Acquire
 0001:0004DAA0       JclSynch.TJclMutex.Create
 0001:0004DB3C       JclSynch.TJclMutex.Open
 0001:0004DBD0       JclSynch.TJclMutex.Release
 0001:0004DBE4       JclSynch.Finalization
 0001:0004DCA4       JclUnitVersioning..TUnitVersion
 0001:0004DF4C       JclUnitVersioning..TUnitVersioningModule
 0001:0004E190       JclUnitVersioning..TCustomUnitVersioningProvider
 0001:0004E364       JclUnitVersioning..TUnitVersioning
 0001:0004E7EC       JclUnitVersioning.StartsWith
 0001:0004E8F8       JclUnitVersioning.CompareFilenames
 0001:0004E900       JclUnitVersioning.TUnitVersion.Create
 0001:0004E93C       JclUnitVersioning.TUnitVersion.RCSfile
 0001:0004EAD0       JclUnitVersioning.TUnitVersion.Revision
 0001:0004EB84       JclUnitVersioning.TUnitVersion.Date
 0001:0004EC3C       JclUnitVersioning.TUnitVersion.Data
 0001:0004EC44       JclUnitVersioning.TUnitVersion.Extra
 0001:0004EC98       JclUnitVersioning.TUnitVersion.LogPath
 0001:0004ECEC       JclUnitVersioning.TUnitVersion.DateTime
 0001:0004F0B4       JclUnitVersioning.TUnitVersion.Summary
 0001:0004F18C       JclUnitVersioning.TUnitVersioningModule.Create
 0001:0004F1D8       JclUnitVersioning.TUnitVersioningModule.Destroy
 0001:0004F208       JclUnitVersioning.TUnitVersioningModule.GetCount
 0001:0004F210       JclUnitVersioning.TUnitVersioningModule.GetItems
 0001:0004F224       JclUnitVersioning.TUnitVersioningModule.Add
 0001:0004F244       JclUnitVersioning.TUnitVersioningModule.IndexOfInfo
 0001:0004F278       JclUnitVersioning.TUnitVersioningModule.FindUnit
 0001:0004F298       JclUnitVersioning.TUnitVersioningModule.IndexOf
 0001:0004F370       JclUnitVersioning.TCustomUnitVersioningProvider.Create
 0001:0004F3A8       JclUnitVersioning.TCustomUnitVersioningProvider.LoadModuleUnitVersioningInfo
 0001:0004F3AC       JclUnitVersioning.TCustomUnitVersioningProvider.ReleaseModuleUnitVersioningInfo
 0001:0004F3B0       JclUnitVersioning.TUnitVersioning.Create
 0001:0004F404       JclUnitVersioning.TUnitVersioning.Destroy
 0001:0004F43C       JclUnitVersioning.TUnitVersioning.Add
 0001:0004F4BC       JclUnitVersioning.TUnitVersioning.UnregisterModule
 0001:0004F518       JclUnitVersioning.TUnitVersioning.UnregisterModule
 0001:0004F524       JclUnitVersioning.TUnitVersioning.GetCount
 0001:0004F55C       JclUnitVersioning.TUnitVersioning.GetModuleCount
 0001:0004F570       JclUnitVersioning.TUnitVersioning.GetModule
 0001:0004F584       JclUnitVersioning.TUnitVersioning.ValidateModules
 0001:0004F610       JclUnitVersioning.TUnitVersioning.FindUnit
 0001:0004F654       JclUnitVersioning.TUnitVersioning.IndexOf
 0001:0004F6C8       JclUnitVersioning.TUnitVersioning.RegisterProvider
 0001:0004F71C       JclUnitVersioning.TUnitVersioning.LoadModuleUnitVersioningInfo
 0001:0004F74C       JclUnitVersioning.GetUnitVersioning
 0001:0004F998       JclUnitVersioning.FinalizeUnitVersioning
 0001:0004FA58       JclUnitVersioning.RegisterUnitVersion
 0001:0004FA74       JclUnitVersioning.UnregisterUnitVersion
 0001:0004FA8C       JclUnitVersioning.Finalization
 0001:0004FB18       JclPeImage..EJclPeImageError
 0001:0004FBC0       JclPeImage..TJclPeImageBaseList
 0001:0004FCF4       JclPeImage..TJclPeImagesCache
 0001:0004FFFC       JclPeImage..TJclPeImportFuncItem
 0001:000502E4       JclPeImage..TJclPeImportLibItem
 0001:00050790       JclPeImage..TJclPeImportList
 0001:00050CBC       JclPeImage..TJclPeExportFuncItem
 0001:0005117C       JclPeImage..TJclPeExportFuncList
 0001:000517D0       JclPeImage..TJclPeResourceRawStream
 0001:0005192C       JclPeImage..TJclPeResourceItem
 0001:00051DB8       JclPeImage..TJclPeResourceList
 0001:00051FA0       JclPeImage..TJclPeRootResourceList
 0001:00052200       JclPeImage..TJclPeRelocEntry
 0001:00052398       JclPeImage..TJclPeRelocList
 0001:000524D4       JclPeImage..TJclPeDebugList
 0001:000525C0       JclPeImage..TJclPeCertificate
 0001:00052728       JclPeImage..TJclPeCertificateList
 0001:00052820       JclPeImage..TJclPeCLRHeader
 0001:00053134       JclPeImage..TJclPeImage
 0001:00053E8C       JclPeImage..TJclPePackageInfo
 0001:00054384       JclPeImage..TJclPeBorForm
 0001:000546F4       JclPeImage..TJclPeBorImage
 0001:00054AC8       JclPeImage..TJclPeSectionStream
 0001:00054E68       JclPeImage.AddFlagTextRes
 0001:00054F18       JclPeImage.CompareResourceName
 0001:00054F60       JclPeImage.ProcessLibraries
 0001:0005504C       JclPeImage.InternalImportedLibraries
 0001:00055114       JclPeImage.PeStripFunctionAW
 0001:00055244       JclPeImage.PeSmartFunctionNameSame
 0001:00055324       JclPeImage.TJclPeImagesCache.Create
 0001:0005537C       JclPeImage.TJclPeImagesCache.Destroy
 0001:000553B8       JclPeImage.TJclPeImagesCache.Clear
 0001:000553F4       JclPeImage.TJclPeImagesCache.GetCount
 0001:00055400       JclPeImage.TJclPeImagesCache.GetImages
 0001:00055450       JclPeImage.TJclPeImagesCache.GetPeImageClass
 0001:00055458       JclPeImage.TJclPeImageBaseList.Create
 0001:00055498       JclPeImage.ImportSortByName
 0001:00055524       JclPeImage.ImportSortByNameDESC
 0001:0005552C       JclPeImage.ImportSortByHint
 0001:00055538       JclPeImage.ImportSortByHintDESC
 0001:00055540       JclPeImage.ImportSortByDll
 0001:000555BC       JclPeImage.ImportSortByDllDESC
 0001:000555C4       JclPeImage.ImportSortByOrdinal
 0001:00055640       JclPeImage.ImportSortByOrdinalDESC
 0001:00055648       JclPeImage.GetImportSortFunction
 0001:0005565C       JclPeImage.ImportLibSortByIndex
 0001:00055664       JclPeImage.ImportLibSortByName
 0001:000556E0       JclPeImage.GetImportLibSortFunction
 0001:000556EC       JclPeImage.TJclPeImportFuncItem.Create
 0001:00055754       JclPeImage.TJclPeImportFuncItem.GetIsByOrdinal
 0001:00055760       JclPeImage.TJclPeImportFuncItem.SetIndirectImportName
 0001:00055778       JclPeImage.TJclPeImportFuncItem.SetResolveCheck
 0001:0005577C       JclPeImage.TJclPeImportLibItem.Create
 0001:000557E4       JclPeImage.TJclPeImportLibItem.CheckImports
 0001:000558C4       JclPeImage.CreateList32
 0001:00055A30       JclPeImage.CreateList64
 0001:00055BAC       JclPeImage.TJclPeImportLibItem.CreateList
 0001:00055BEC       JclPeImage.TJclPeImportLibItem.GetCount
 0001:00055C04       JclPeImage.TJclPeImportLibItem.GetFileName
 0001:00055C58       JclPeImage.TJclPeImportLibItem.GetItems
 0001:00055C6C       JclPeImage.TJclPeImportLibItem.GetName
 0001:00055C80       JclPeImage.TJclPeImportLibItem.GetThunkData32
 0001:00055C90       JclPeImage.TJclPeImportLibItem.GetThunkData64
 0001:00055CA0       JclPeImage.TJclPeImportLibItem.SetImportDirectoryIndex
 0001:00055CA4       JclPeImage.TJclPeImportLibItem.SetImportKind
 0001:00055CA8       JclPeImage.TJclPeImportLibItem.SetSorted
 0001:00055CAC       JclPeImage.TJclPeImportLibItem.SetThunk
 0001:00055CB4       JclPeImage.TJclPeImportLibItem.SortList
 0001:00055D00       JclPeImage.TJclPeImportList.Create
 0001:00055D8C       JclPeImage.TJclPeImportList.Destroy
 0001:00055DF8       JclPeImage.TJclPeImportList.CheckImports
 0001:00055F1C       JclPeImage.CreateDelayImportList32
 0001:0005604C       JclPeImage.CreateDelayImportList64
 0001:0005617C       JclPeImage.TJclPeImportList.CreateList
 0001:00056410       JclPeImage.TJclPeImportList.GetAllItemCount
 0001:0005642C       JclPeImage.TJclPeImportList.GetItems
 0001:00056440       JclPeImage.TJclPeImportList.GetUniqueLibItemCount
 0001:0005644C       JclPeImage.TJclPeImportList.GetUniqueLibNames
 0001:00056468       JclPeImage.TJclPeImportList.MakeBorlandImportTableForMappedImage
 0001:00056730       JclPeImage.TJclPeImportList.RefreshAllItems
 0001:00056800       JclPeImage.TJclPeImportList.SetFilterModuleName
 0001:00056848       JclPeImage.TJclPeImportList.SmartFindName
 0001:0005696C       JclPeImage.TJclPeImportList.SortAllItemsList
 0001:000569A0       JclPeImage.TJclPeImportList.SortList
 0001:000569BC       JclPeImage.TryGetNames
 0001:00056B30       JclPeImage.TJclPeImportList.TryGetNamesForOrdinalImports
 0001:00056CC0       JclPeImage.TJclPeExportFuncItem.Create
 0001:00056D88       JclPeImage.TJclPeExportFuncItem.GetAddressOrForwardStr
 0001:00056DE4       JclPeImage.TJclPeExportFuncItem.GetForwardedFuncName
 0001:00056E28       JclPeImage.TJclPeExportFuncItem.GetForwardedFuncOrdinal
 0001:00056E58       JclPeImage.TJclPeExportFuncItem.GetForwardedLibName
 0001:00056F24       JclPeImage.TJclPeExportFuncItem.GetIsExportedVariable
 0001:00056F68       JclPeImage.TJclPeExportFuncItem.GetIsForwarded
 0001:00056F7C       JclPeImage.TJclPeExportFuncItem.GetMappedAddress
 0001:00056F8C       JclPeImage.TJclPeExportFuncItem.GetSectionName
 0001:00056FC0       JclPeImage.TJclPeExportFuncItem.SetResolveCheck
 0001:00056FC4       JclPeImage.ExportSortByName
 0001:00056FD0       JclPeImage.ExportSortByNameDESC
 0001:00056FD8       JclPeImage.ExportSortByOrdinal
 0001:00056FE4       JclPeImage.ExportSortByOrdinalDESC
 0001:00056FEC       JclPeImage.ExportSortByHint
 0001:00056FF8       JclPeImage.ExportSortByHintDESC
 0001:00057000       JclPeImage.ExportSortByAddress
 0001:00057014       JclPeImage.ExportSortByAddressDESC
 0001:0005701C       JclPeImage.ExportSortByForwarded
 0001:00057040       JclPeImage.ExportSortByForwardedDESC
 0001:00057048       JclPeImage.ExportSortByAddrOrFwd
 0001:000570B0       JclPeImage.ExportSortByAddrOrFwdDESC
 0001:000570B8       JclPeImage.ExportSortBySection
 0001:00057134       JclPeImage.ExportSortBySectionDESC
 0001:0005713C       JclPeImage.TJclPeExportFuncList.Create
 0001:0005717C       JclPeImage.TJclPeExportFuncList.Destroy
 0001:000571B4       JclPeImage.TJclPeExportFuncList.CanPerformFastNameSearch
 0001:000571CC       JclPeImage.PerformCheck
 0001:000572B4       JclPeImage.TJclPeExportFuncList.CheckForwards
 0001:00057424       JclPeImage.TJclPeExportFuncList.CreateList
 0001:00057664       JclPeImage.TJclPeExportFuncList.GetForwardedLibsList
 0001:00057720       JclPeImage.TJclPeExportFuncList.GetItemFromName
 0001:000577E4       JclPeImage.TJclPeExportFuncList.GetItemFromOrdinal
 0001:0005782C       JclPeImage.TJclPeExportFuncList.GetItems
 0001:00057840       JclPeImage.TJclPeExportFuncList.GetName
 0001:000578E8       JclPeImage.TJclPeExportFuncList.ItemName
 0001:0005790C       JclPeImage.TJclPeExportFuncList.OrdinalValid
 0001:00057928       JclPeImage.TJclPeExportFuncList.PrepareForFastNameSearch
 0001:00057944       JclPeImage.TJclPeExportFuncList.SmartFindName
 0001:0005799C       JclPeImage.TJclPeExportFuncList.SortList
 0001:000579E4       JclPeImage.TJclPeResourceRawStream.Create
 0001:00057B5C       JclPeImage.TJclPeResourceRawStream.Write
 0001:00057B74       JclPeImage.TJclPeResourceItem.Create
 0001:00057BDC       JclPeImage.TJclPeResourceItem.Destroy
 0001:00057C14       JclPeImage.TJclPeResourceItem.CompareName
 0001:00057C88       JclPeImage.TJclPeResourceItem.GetDataEntry
 0001:00057CAC       JclPeImage.TJclPeResourceItem.GetIsDirectory
 0001:00057CB8       JclPeImage.TJclPeResourceItem.GetIsName
 0001:00057CC4       JclPeImage.TJclPeResourceItem.GetLangID
 0001:00057D5C       JclPeImage.TJclPeResourceItem.GetList
 0001:00057DB4       JclPeImage.TJclPeResourceItem.GetName
 0001:00057E18       JclPeImage.TJclPeResourceItem.GetParameterName
 0001:00057E74       JclPeImage.TJclPeResourceItem.GetRawEntryData
 0001:00057E9C       JclPeImage.TJclPeResourceItem.GetRawEntryDataSize
 0001:00057EC4       JclPeImage.TJclPeResourceItem.GetResourceType
 0001:00057ED8       JclPeImage.TJclPeResourceItem.GetResourceTypeStr
 0001:00057F54       JclPeImage.TJclPeResourceItem.Level1Item
 0001:00057F60       JclPeImage.TJclPeResourceItem.OffsetToRawData
 0001:00057F70       JclPeImage.TJclPeResourceItem.SubDirData
 0001:00057F84       JclPeImage.TJclPeResourceList.Create
 0001:00057FDC       JclPeImage.TJclPeResourceList.CreateList
 0001:00058024       JclPeImage.TJclPeResourceList.FindName
 0001:000580B0       JclPeImage.TJclPeResourceList.GetItems
 0001:000580C4       JclPeImage.TJclPeRootResourceList.Destroy
 0001:000580FC       JclPeImage.TJclPeRootResourceList.FindResource
 0001:000581DC       JclPeImage.TJclPeRootResourceList.FindResource
 0001:00058280       JclPeImage.TJclPeRootResourceList.GetManifestContent
 0001:000583A8       JclPeImage.TJclPeRootResourceList.ListResourceNames
 0001:0005848C       JclPeImage.TJclPeRelocEntry.Create
 0001:000584D4       JclPeImage.TJclPeRelocEntry.GetSize
 0001:000584DC       JclPeImage.TJclPeRelocEntry.GetVirtualAddress
 0001:000584E4       JclPeImage.TJclPeRelocList.Create
 0001:00058520       JclPeImage.TJclPeRelocList.CreateList
 0001:00058584       JclPeImage.TJclPeDebugList.Create
 0001:000585C4       JclPeImage.TJclPeDebugList.CreateList
 0001:000586C0       JclPeImage.TJclPeDebugList.GetItems
 0001:000586E0       JclPeImage.TJclPeCertificate.Create
 0001:00058744       JclPeImage.TJclPeCertificateList.Create
 0001:00058780       JclPeImage.TJclPeCertificateList.CreateList
 0001:000587E0       JclPeImage.TJclPeCLRHeader.Create
 0001:00058818       JclPeImage.TJclPeCLRHeader.GetHasMetadata
 0001:00058844       JclPeImage.TJclPeCLRHeader.GetVersionString
 0001:0005885C       JclPeImage.TJclPeCLRHeader.ReadHeader
 0001:00058888       JclPeImage.TJclPeImage.Create
 0001:000588CC       JclPeImage.TJclPeImage.Destroy
 0001:00058910       JclPeImage.TJclPeImage.AfterOpen
 0001:00058914       JclPeImage.AttachLoadedModule32
 0001:00058A34       JclPeImage.AttachLoadedModule64
 0001:00058B54       JclPeImage.TJclPeImage.AttachLoadedModule
 0001:00058BB0       JclPeImage.TJclPeImage.CalculateCheckSum
 0001:00058BF4       JclPeImage.TJclPeImage.CheckNotAttached
 0001:00058C14       JclPeImage.TJclPeImage.Clear
 0001:00058CD0       JclPeImage.TJclPeImage.DateTimeToStamp
 0001:00058CF4       JclPeImage.TJclPeImage.DebugTypeNames
 0001:00058DB8       JclPeImage.TJclPeImage.DirectoryEntryToData
 0001:00058DD4       JclPeImage.TJclPeImage.DirectoryNames
 0001:00058F74       JclPeImage.TJclPeImage.ExpandBySearchPath
 0001:00059050       JclPeImage.TJclPeImage.ExpandModuleName
 0001:000590A8       JclPeImage.TJclPeImage.GetCertificateList
 0001:000590C8       JclPeImage.TJclPeImage.GetCLRHeader
 0001:000590E8       JclPeImage.TJclPeImage.GetDebugList
 0001:00059108       JclPeImage.TJclPeImage.GetDescription
 0001:000591B0       JclPeImage.TJclPeImage.GetDirectories
 0001:0005921C       JclPeImage.TJclPeImage.GetDirectoryExists
 0001:0005923C       JclPeImage.TJclPeImage.GetExportList
 0001:0005925C       JclPeImage.TJclPeImage.GetFileProperties
 0001:000592D4       JclPeImage.TJclPeImage.GetImageSectionCount
 0001:000592E0       JclPeImage.TJclPeImage.GetImageSectionHeaders
 0001:00059300       JclPeImage.TJclPeImage.GetImageSectionNameFromRva
 0001:00059324       JclPeImage.TJclPeImage.GetImportList
 0001:00059344       JclPeImage.TJclPeImage.GetMappedAddress
 0001:0005935C       JclPeImage.TJclPeImage.GetOptionalHeader32
 0001:00059388       JclPeImage.TJclPeImage.GetOptionalHeader64
 0001:000593B4       JclPeImage.TJclPeImage.GetRelocationList
 0001:000593D4       JclPeImage.TJclPeImage.GetResourceList
 0001:00059424       JclPeImage.TJclPeImage.GetSectionHeader
 0001:00059454       JclPeImage.TJclPeImage.GetSectionName
 0001:0005948C       JclPeImage.TJclPeImage.GetUnusedHeaderBytes
 0001:000594C0       JclPeImage.TJclPeImage.GetVersionInfo
 0001:0005957C       JclPeImage.TJclPeImage.GetVersionInfoAvailable
 0001:000595BC       JclPeImage.TJclPeImage.HeaderNames
 0001:00059844       JclPeImage.IsBrokenFormat32
 0001:000598E8       JclPeImage.IsBrokenFormat64
 0001:0005998C       JclPeImage.TJclPeImage.IsBrokenFormat
 0001:000599C0       JclPeImage.TJclPeImage.IsCLR
 0001:000599EC       JclPeImage.TJclPeImage.IsSystemImage
 0001:00059A08       JclPeImage.TJclPeImage.LoadConfigNames
 0001:00059B5C       JclPeImage.TJclPeImage.RaiseStatusException
 0001:00059BE0       JclPeImage.TJclPeImage.RawToVa
 0001:00059BE8       JclPeImage.TJclPeImage.ReadImageSections
 0001:00059CFC       JclPeImage.TJclPeImage.ResourceItemCreate
 0001:00059D10       JclPeImage.TJclPeImage.ResourceListCreate
 0001:00059D24       JclPeImage.TJclPeImage.RvaToSection
 0001:00059DA0       JclPeImage.TJclPeImage.RvaToVa
 0001:00059DC0       JclPeImage.RvaToVaEx32
 0001:00059E0C       JclPeImage.RvaToVaEx64
 0001:00059E8C       JclPeImage.TJclPeImage.RvaToVaEx
 0001:00059EC4       JclPeImage.TJclPeImage.SetFileName
 0001:00059FB8       JclPeImage.TJclPeImage.ShortSectionInfo
 0001:0005A04C       JclPeImage.TJclPeImage.StatusOK
 0001:0005A054       JclPeImage.TJclPeImage.StampToDateTime
 0001:0005A084       JclPeImage.TJclPeImage.TryGetNamesForOrdinalImports
 0001:0005A0A4       JclPeImage.VerifyCheckSum32
 0001:0005A0F4       JclPeImage.VerifyCheckSum64
 0001:0005A144       JclPeImage.TJclPeImage.VerifyCheckSum
 0001:0005A180       JclPeImage.TJclPePackageInfo.Create
 0001:0005A1E0       JclPeImage.TJclPePackageInfo.Destroy
 0001:0005A228       JclPeImage.TJclPePackageInfo.GetContains
 0001:0005A22C       JclPeImage.TJclPePackageInfo.GetContainsCount
 0001:0005A240       JclPeImage.TJclPePackageInfo.GetRequires
 0001:0005A244       JclPeImage.TJclPePackageInfo.GetRequiresCount
 0001:0005A258       JclPeImage.TJclPePackageInfo.PackageModuleTypeToString
 0001:0005A2B8       JclPeImage.TJclPePackageInfo.PackageOptionsToString
 0001:0005A310       JclPeImage.TJclPePackageInfo.ProducerToString
 0001:0005A37C       JclPeImage.PackageInfoProc
 0001:0005A3CC       JclPeImage.TJclPePackageInfo.ReadPackageInfo
 0001:0005A514       JclPeImage.TJclPePackageInfo.SetDcpName
 0001:0005A528       JclPeImage.TJclPePackageInfo.UnitInfoFlagsToString
 0001:0005A594       JclPeImage.TJclPeBorForm.Create
 0001:0005A5FC       JclPeImage.TJclPeBorForm.ConvertFormToText
 0001:0005A650       JclPeImage.TJclPeBorForm.ConvertFormToText
 0001:0005A6BC       JclPeImage.TJclPeBorForm.GetDisplayName
 0001:0005A704       JclPeImage.TJclPeBorImage.Create
 0001:0005A75C       JclPeImage.TJclPeBorImage.Destroy
 0001:0005A794       JclPeImage.TJclPeBorImage.AfterOpen
 0001:0005A87C       JclPeImage.TJclPeBorImage.Clear
 0001:0005A8B8       JclPeImage.ProcessListItem
 0001:0005AA0C       JclPeImage.TJclPeBorImage.CreateFormsList
 0001:0005AA70       JclPeImage.TJclPeBorImage.DependedPackages
 0001:0005ABD8       JclPeImage.TJclPeBorImage.FreeLibHandle
 0001:0005ABFC       JclPeImage.TJclPeBorImage.GetFormCount
 0001:0005AC18       JclPeImage.TJclPeBorImage.GetLibHandle
 0001:0005AC54       JclPeImage.CheckName
 0001:0005AE04       JclPeImage.TJclPeBorImage.GetPackageCompilerVersion
 0001:0005AEC0       JclPeImage.TJclPeBorImage.GetPackageInfo
 0001:0005AF04       JclPeImage.PeMapImgNtHeaders32
 0001:0005AF48       JclPeImage.PeMapImgNtHeaders64
 0001:0005AF8C       JclPeImage.PeMapImgSize
 0001:0005AFB8       JclPeImage.PeMapImgSize32
 0001:0005AFCC       JclPeImage.PeMapImgSize64
 0001:0005AFE0       JclPeImage.PeMapImgTarget
 0001:0005B008       JclPeImage.PeMapImgSections32
 0001:0005B01C       JclPeImage.PeMapImgSections64
 0001:0005B030       JclPeImage.PeMapImgFindSection32
 0001:0005B0F4       JclPeImage.PeMapImgFindSection64
 0001:0005B1B8       JclPeImage.PeMapImgFindSectionFromModule32
 0001:0005B1D8       JclPeImage.PeMapImgFindSectionFromModule64
 0001:0005B1F8       JclPeImage.PeMapImgFindSectionFromModule
 0001:0005B22C       JclPeImage.TJclPeSectionStream.Create
 0001:0005B278       JclPeImage.TJclPeSectionStream.Initialize
 0001:0005B360       JclPeImage.TJclPeSectionStream.Write
 0001:0005B378       JclPeImage.MarkQualifier
 0001:0005B3A4       JclPeImage.ReadSpecialSymbol
 0001:0005B41C       JclPeImage.ReadRTTI
 0001:0005B480       JclPeImage.ReadNameSymbol
 0001:0005B4C4       JclPeImage.ReadName
 0001:0005B5BC       JclPeImage.PeBorUnmangleName
 0001:0005B76C       JclPeImage.UndecorateSymbolName
 0001:0005B9CC       JclPeImage.Finalization
 0001:0005C270       JclTD32..TJclTD32ModuleInfo
 0001:0005C3F8       JclTD32..TJclTD32LineInfo
 0001:0005C564       JclTD32..TJclTD32SourceModuleInfo
 0001:0005C7C0       JclTD32..TJclTD32SymbolInfo
 0001:0005C8F0       JclTD32..TJclTD32ProcSymbolInfo
 0001:0005CA9C       JclTD32..TJclTD32LocalProcSymbolInfo
 0001:0005CB50       JclTD32..TJclTD32GlobalProcSymbolInfo
 0001:0005CC08       JclTD32..TJclTD32ObjNameSymbolInfo
 0001:0005CD88       JclTD32..TJclTD32DataSymbolInfo
 0001:0005CF3C       JclTD32..TJclTD32LDataSymbolInfo
 0001:0005CFE8       JclTD32..TJclTD32GDataSymbolInfo
 0001:0005D094       JclTD32..TJclTD32PublicSymbolInfo
 0001:0005D144       JclTD32..TJclTD32WithSymbolInfo
 0001:0005D2F0       JclTD32..TJclTD32LabelSymbolInfo
 0001:0005D464       JclTD32..TJclTD32ConstantSymbolInfo
 0001:0005D620       JclTD32..TJclTD32UdtSymbolInfo
 0001:0005D7DC       JclTD32..TJclTD32VftPathSymbolInfo
 0001:0005D998       JclTD32..TJclTD32InfoParser
 0001:0005DE44       JclTD32..TJclTD32InfoScanner
 0001:0005E100       JclTD32..TJclPeBorTD32Image
 0001:0005E440       JclTD32.TJclTD32ModuleInfo.Create
 0001:0005E5A4       JclTD32.TJclTD32ModuleInfo.GetSegment
 0001:0005E6E8       JclTD32.TJclTD32LineInfo.Create
 0001:0005E730       JclTD32.TJclTD32SourceModuleInfo.Create
 0001:0005E938       JclTD32.TJclTD32SourceModuleInfo.Destroy
 0001:0005E970       JclTD32.TJclTD32SourceModuleInfo.GetLine
 0001:0005E984       JclTD32.TJclTD32SourceModuleInfo.GetLineCount
 0001:0005E98C       JclTD32.TJclTD32SourceModuleInfo.GetSegment
 0001:0005EAC8       JclTD32.TJclTD32SourceModuleInfo.FindLine
 0001:0005EB68       JclTD32.TJclTD32SymbolInfo.Create
 0001:0005ECC4       JclTD32.TJclTD32ProcSymbolInfo.Create
 0001:0005EE34       JclTD32.TJclTD32ObjNameSymbolInfo.Create
 0001:0005EF9C       JclTD32.TJclTD32DataSymbolInfo.Create
 0001:0005F10C       JclTD32.TJclTD32WithSymbolInfo.Create
 0001:0005F27C       JclTD32.TJclTD32LabelSymbolInfo.Create
 0001:0005F3E4       JclTD32.TJclTD32ConstantSymbolInfo.Create
 0001:0005F554       JclTD32.TJclTD32UdtSymbolInfo.Create
 0001:0005F6C4       JclTD32.TJclTD32VftPathSymbolInfo.Create
 0001:0005F834       JclTD32.TJclTD32InfoParser.Create
 0001:0005FA10       JclTD32.TJclTD32InfoParser.Destroy
 0001:0005FA88       JclTD32.TJclTD32InfoParser.Analyse
 0001:0005FCD4       JclTD32.TJclTD32InfoParser.AnalyseNames
 0001:0005FD20       JclTD32.TJclTD32InfoParser.AnalyseGlobalTypes
 0001:0005FD38       JclTD32.TJclTD32InfoParser.AnalyseAlignSymbols
 0001:0005FEF0       JclTD32.TJclTD32InfoParser.AnalyseModules
 0001:0005FF10       JclTD32.TJclTD32InfoParser.AnalyseSourceModules
 0001:0005FF58       JclTD32.TJclTD32InfoParser.AnalyseUnknownSubSection
 0001:0005FF5C       JclTD32.TJclTD32InfoParser.GetModule
 0001:0005FF70       JclTD32.TJclTD32InfoParser.GetModuleCount
 0001:0005FF78       JclTD32.TJclTD32InfoParser.GetName
 0001:00060010       JclTD32.TJclTD32InfoParser.GetNameCount
 0001:00060018       JclTD32.TJclTD32InfoParser.GetSourceModule
 0001:0006002C       JclTD32.TJclTD32InfoParser.GetSourceModuleCount
 0001:00060034       JclTD32.TJclTD32InfoParser.GetSymbolCount
 0001:0006003C       JclTD32.TJclTD32InfoParser.GetProcSymbol
 0001:00060050       JclTD32.TJclTD32InfoParser.GetProcSymbolCount
 0001:00060058       JclTD32.TJclTD32InfoParser.FindModule
 0001:00060124       JclTD32.TJclTD32InfoParser.FindSourceModule
 0001:000601C4       JclTD32.TJclTD32InfoParser.FindProc
 0001:00060220       JclTD32.TJclTD32InfoParser.IsTD32DebugInfoValid
 0001:000603A0       JclTD32.TJclTD32InfoParser.IsTD32Sign
 0001:000603B8       JclTD32.TJclTD32InfoParser.LfaToVa
 0001:000603C0       JclTD32.TJclTD32InfoScanner.LineNumberFromAddr
 0001:000603CC       JclTD32.TJclTD32InfoScanner.LineNumberFromAddr
 0001:00060418       JclTD32.TJclTD32InfoScanner.ModuleNameFromAddr
 0001:00060450       JclTD32.TJclTD32InfoScanner.ProcNameFromAddr
 0001:00060470       JclTD32.FormatProcName
 0001:000605AC       JclTD32.TJclTD32InfoScanner.ProcNameFromAddr
 0001:00060638       JclTD32.TJclTD32InfoScanner.SourceNameFromAddr
 0001:00060668       JclTD32.TJclPeBorTD32Image.AfterOpen
 0001:0006067C       JclTD32.TJclPeBorTD32Image.CheckDebugData
 0001:00060710       JclTD32.TJclPeBorTD32Image.Clear
 0001:00060724       JclTD32.TJclPeBorTD32Image.ClearDebugData
 0001:00060758       JclTD32.TJclPeBorTD32Image.IsDebugInfoInImage
 0001:000607D4       JclTD32.TJclPeBorTD32Image.IsDebugInfoInTds
 0001:000608C8       JclTD32.Finalization
 0001:00060AC4       JclHookExcept.FreeThreadObjList
 0001:00060B48       JclHookExcept.TNotifierItem.DoNotify
 0001:00060B94       JclHookExcept.GetFramePointer
 0001:00060B98       JclHookExcept.DoExceptNotify
 0001:00060CCC       JclHookExcept.HookedRaiseException
 0001:00060D34       JclHookExcept.JclBelongsHookedCode
 0001:00060D50       JclHookExcept.JclRemoveExceptNotifier
 0001:00060DF8       JclHookExcept.JclHookedExceptModulesList
 0001:00060E28       JclHookExcept.Finalization
 0001:00060E50       JclDebug..TJclModuleInfo
 0001:00060FEC       JclDebug..TJclModuleInfoList
 0001:00061258       JclDebug..TJclAbstractMapParser
 0001:000619B4       JclDebug..TJclMapScanner
 0001:0006206C       JclDebug..TJclBinDebugScanner
 0001:000625F4       JclDebug..TJclDebugInfoSource
 0001:000627E0       JclDebug.TJclDebugInfoSource.InitializeSource
 0001:000627E8       JclDebug.TJclDebugInfoSource.GetLocationInfo
 0001:00062814       JclDebug..TJclDebugInfoList
 0001:00062A64       JclDebug..TJclDebugInfoMap
 0001:00062BE8       JclDebug..TJclDebugInfoBinary
 0001:00062D88       JclDebug..TJclDebugInfoExports
 0001:00062F14       JclDebug..TJclDebugInfoTD32
 0001:00063098       JclDebug..TJclDebugInfoSymbols
 0001:000632C8       JclDebug..TJclStackBaseList
 0001:000635E4       JclDebug..TJclStackInfoItem
 0001:00063724       JclDebug..TJclStackInfoList
 0001:00063EB0       JclDebug..TJclExceptFrame
 0001:00064140       JclDebug..TJclExceptFrameList
 0001:00064468       JclDebug.GetFramePointer
 0001:0006446C       JclDebug.GetStackPointer
 0001:00064470       JclDebug.GetExceptionPointer
 0001:00064478       JclDebug.GetStackTop
 0001:00064480       JclDebug.TJclModuleInfoList.Create
 0001:000644DC       JclDebug.TJclModuleInfoList.AddModule
 0001:00064510       JclDebug.TJclModuleInfoList.BuildModulesList
 0001:000645C0       JclDebug.TJclModuleInfoList.CreateItemForAddress
 0001:0006462C       JclDebug.TJclModuleInfoList.GetItems
 0001:00064640       JclDebug.TJclModuleInfoList.GetModuleFromAddress
 0001:0006469C       JclDebug.TJclModuleInfoList.IsSystemModuleAddress
 0001:000646B4       JclDebug.TJclModuleInfoList.IsValidModuleAddress
 0001:000646CC       JclDebug.TJclAbstractMapParser.Create
 0001:00064730       JclDebug.TJclAbstractMapParser.Create
 0001:00064770       JclDebug.TJclAbstractMapParser.Destroy
 0001:000647A8       JclDebug.TJclAbstractMapParser.GetLinkerBugUnitName
 0001:000647C0       JclDebug.TJclAbstractMapParser.MapStringToFileName
 0001:00064824       JclDebug.TJclAbstractMapParser.MapStringToModuleName
 0001:000648F8       JclDebug.TJclAbstractMapParser.MapStringToStr
 0001:00064B40       JclDebug.Eof
 0001:00064B54       JclDebug.SkipWhiteSpace
 0001:00064B84       JclDebug.SkipEndLine
 0001:00064BBC       JclDebug.IsDecDigit
 0001:00064BDC       JclDebug.ReadTextLine
 0001:00064C20       JclDebug.ReadDecValue
 0001:00064C58       JclDebug.ReadHexValue
 0001:00064CCC       JclDebug.ReadAddress
 0001:00064D08       JclDebug.ReadString
 0001:00064D38       JclDebug.FindParam
 0001:00064D58       JclDebug.SyncToHeader
 0001:00064E34       JclDebug.SyncToPrefix
 0001:00064F50       JclDebug.TJclAbstractMapParser.Parse
 0001:000651DC       JclDebug.TJclMapScanner.Create
 0001:00065224       JclDebug.TJclMapScanner.MAPAddrToVA
 0001:0006525C       JclDebug.TJclMapScanner.MapStringCacheToFileName
 0001:0006528C       JclDebug.TJclMapScanner.MapStringCacheToModuleName
 0001:000652BC       JclDebug.TJclMapScanner.MapStringCacheToStr
 0001:000652FC       JclDebug.TJclMapScanner.ClassTableItem
 0001:00065454       JclDebug.TJclMapScanner.LineNumberFromAddr
 0001:00065460       JclDebug.Search_MapLineNumber
 0001:00065468       JclDebug.TJclMapScanner.LineNumberFromAddr
 0001:000654D8       JclDebug.TJclMapScanner.LineNumbersItem
 0001:00065658       JclDebug.TJclMapScanner.LineNumberUnitItem
 0001:0006565C       JclDebug.TJclMapScanner.ModuleNameFromAddr
 0001:000656B8       JclDebug.TJclMapScanner.ModuleStartFromAddr
 0001:00065700       JclDebug.TJclMapScanner.ProcNameFromAddr
 0001:00065720       JclDebug.Search_MapProcName
 0001:00065728       JclDebug.TJclMapScanner.ProcNameFromAddr
 0001:000657B4       JclDebug.TJclMapScanner.PublicsByNameItem
 0001:000657B8       JclDebug.TJclMapScanner.PublicsByValueItem
 0001:000658B0       JclDebug.Sort_MapLineNumber
 0001:000658B8       JclDebug.Sort_MapProcName
 0001:000658C0       JclDebug.Sort_MapSegment
 0001:000658C8       JclDebug.TJclMapScanner.Scan
 0001:0006597C       JclDebug.TJclMapScanner.SegmentItem
 0001:00065A98       JclDebug.TJclMapScanner.SourceNameFromAddr
 0001:00065B48       JclDebug.SimpleCryptString
 0001:00065C08       JclDebug.DecodeNameString
 0001:00065DF4       JclDebug.TJclBinDebugScanner.Create
 0001:00065E44       JclDebug.TJclBinDebugScanner.CacheLineNumbers
 0001:00065F18       JclDebug.TJclBinDebugScanner.CacheProcNames
 0001:00066020       JclDebug.TJclBinDebugScanner.CheckFormat
 0001:000660BC       JclDebug.TJclBinDebugScanner.DataToStr
 0001:000660EC       JclDebug.TJclBinDebugScanner.GetModuleName
 0001:00066108       JclDebug.TJclBinDebugScanner.IsModuleNameValid
 0001:00066188       JclDebug.TJclBinDebugScanner.LineNumberFromAddr
 0001:00066194       JclDebug.TJclBinDebugScanner.LineNumberFromAddr
 0001:0006629C       JclDebug.TJclBinDebugScanner.MakePtr
 0001:000662A8       JclDebug.TJclBinDebugScanner.ModuleNameFromAddr
 0001:0006631C       JclDebug.TJclBinDebugScanner.ModuleStartFromAddr
 0001:0006637C       JclDebug.TJclBinDebugScanner.ProcNameFromAddr
 0001:0006639C       JclDebug.TJclBinDebugScanner.ProcNameFromAddr
 0001:00066554       JclDebug.TJclBinDebugScanner.ReadValue
 0001:0006658C       JclDebug.TJclBinDebugScanner.SourceNameFromAddr
 0001:00066648       JclDebug.TJclDebugInfoSource.Create
 0001:0006666C       JclDebug.TJclDebugInfoSource.GetFileName
 0001:00066680       JclDebug.TJclDebugInfoSource.VAFromAddr
 0001:0006668C       JclDebug.NeedDebugInfoList
 0001:000666A8       JclDebug.TJclDebugInfoList.CreateDebugInfo
 0001:00066748       JclDebug.TJclDebugInfoList.GetItemFromModule
 0001:000667A8       JclDebug.TJclDebugInfoList.GetItems
 0001:000667BC       JclDebug.TJclDebugInfoList.GetLocationInfo
 0001:0006682C       JclDebug.TJclDebugInfoList.NeedInfoSourceClassList
 0001:00066898       JclDebug.TJclDebugInfoList.RegisterDebugInfoSource
 0001:000668B0       JclDebug.TJclDebugInfoList.RegisterDebugInfoSourceFirst
 0001:000668C8       JclDebug.TJclDebugInfoList.UnRegisterDebugInfoSource
 0001:000668E0       JclDebug.TJclDebugInfoMap.Destroy
 0001:00066918       JclDebug.TJclDebugInfoMap.GetLocationInfo
 0001:00066A34       JclDebug.TJclDebugInfoMap.InitializeSource
 0001:00066AD0       JclDebug.TJclDebugInfoBinary.Destroy
 0001:00066B18       JclDebug.TJclDebugInfoBinary.GetLocationInfo
 0001:00066C34       JclDebug.TJclDebugInfoBinary.InitializeSource
 0001:00066D74       JclDebug.TJclDebugInfoExports.Destroy
 0001:00066DAC       JclDebug.TJclDebugInfoExports.IsAddressInThisExportedFunction
 0001:00066E8C       JclDebug.TJclDebugInfoExports.GetLocationInfo
 0001:00067144       JclDebug.TJclDebugInfoExports.InitializeSource
 0001:0006718C       JclDebug.TJclDebugInfoTD32.Destroy
 0001:000671C4       JclDebug.TJclDebugInfoTD32.GetLocationInfo
 0001:000672F8       JclDebug.TJclDebugInfoTD32.InitializeSource
 0001:00067354       JclDebug.StrRemoveEmptyPaths
 0001:00067450       JclDebug.TJclDebugInfoSymbols.InitializeDebugSymbols
 0001:00067724       JclDebug.TJclDebugInfoSymbols.CleanupDebugSymbols
 0001:00067754       JclDebug.TJclDebugInfoSymbols.GetLocationInfo
 0001:00067AB0       JclDebug.TJclDebugInfoSymbols.InitializeSource
 0001:00067D04       JclDebug.TJclDebugInfoSymbols.LoadDebugFunctions
 0001:00068018       JclDebug.TJclDebugInfoSymbols.UnloadDebugFunctions
 0001:00068094       JclDebug.GetLocationInfo
 0001:0006814C       JclDebug.GetLocationInfo
 0001:000681F4       JclDebug.GetLocationInfoStr
 0001:00068764       JclDebug.TJclStackBaseList.Create
 0001:000687AC       JclDebug.TJclStackBaseList.Destroy
 0001:00068804       JclDebug..TJclGlobalStackList
 0001:00068A40       JclDebug.TJclGlobalStackList.Destroy
 0001:00068ACC       JclDebug.TJclGlobalStackList.AddObject
 0001:00068B60       JclDebug.TJclGlobalStackList.Clear
 0001:00068BCC       JclDebug.TJclGlobalStackList.FindObject
 0001:00068C88       JclDebug.TJclGlobalStackList.ItemDestroyed
 0001:00068CE0       JclDebug.TJclGlobalStackList.LockThreadID
 0001:00068D54       JclDebug.TJclGlobalStackList.UnlockThreadID
 0001:00068DA8       JclDebug..TJclGlobalModulesList
 0001:00069030       JclDebug.TJclGlobalModulesList.Create
 0001:0006906C       JclDebug.TJclGlobalModulesList.Destroy
 0001:000690C4       JclDebug.TJclGlobalModulesList.AddModule
 0001:00069164       JclDebug.TJclGlobalModulesList.CreateModulesList
 0001:000692E4       JclDebug.TJclGlobalModulesList.FreeModulesList
 0001:0006935C       JclDebug.TJclGlobalModulesList.ValidateAddress
 0001:000693B8       JclDebug.ValidCodeAddr
 0001:000693D0       JclDebug.CorrectExceptStackListTop
 0001:00069440       JclDebug.DoExceptionStackTrace
 0001:000694B8       JclDebug.JclCreateStackList
 0001:000694F0       JclDebug.TJclStackInfoItem.GetCallerAddr
 0001:000694F4       JclDebug.TJclStackInfoItem.GetLogicalAddress
 0001:00069510       JclDebug.TJclStackInfoList.Create
 0001:0006955C       JclDebug.TJclStackInfoList.Create
 0001:000695A8       JclDebug.TJclStackInfoList.Create
 0001:000695F8       JclDebug.TJclStackInfoList.Create
 0001:000696D0       JclDebug.TJclStackInfoList.Destroy
 0001:00069714       JclDebug.TJclStackInfoList.ForceStackTracing
 0001:000697A4       JclDebug.TJclStackInfoList.GetCount
 0001:000697B8       JclDebug.TJclStackInfoList.CorrectOnAccess
 0001:000697C0       JclDebug.TJclStackInfoList.AddToStrings
 0001:00069890       JclDebug.TJclStackInfoList.GetItems
 0001:000698B0       JclDebug.TJclStackInfoList.NextStackFrame
 0001:000699D0       JclDebug.TJclStackInfoList.StoreToList
 0001:00069A14       JclDebug.TJclStackInfoList.TraceStackFrames
 0001:00069A88       JclDebug.TJclStackInfoList.TraceStackRaw
 0001:00069B48       JclDebug.TJclStackInfoList.DelayStoreStack
 0001:00069BD0       JclDebug.TJclStackInfoList.ValidCallSite
 0001:00069D94       JclDebug.TJclStackInfoList.ValidStackAddr
 0001:00069DA4       JclDebug.JclCreateExceptFrameList
 0001:00069DC8       JclDebug.DoExceptFrameTrace
 0001:00069DD4       JclDebug.GetJmpDest
 0001:00069E20       JclDebug.TJclExceptFrame.Create
 0001:00069E78       JclDebug.TJclExceptFrame.AnalyseExceptFrame
 0001:0006A158       JclDebug.TJclExceptFrame.Handles
 0001:0006A164       JclDebug.TJclExceptFrame.HandlerInfo
 0001:0006A258       JclDebug.TJclExceptFrameList.Create
 0001:0006A29C       JclDebug.TJclExceptFrameList.AddFrame
 0001:0006A2C4       JclDebug.TJclExceptFrameList.TraceExceptionFrames
 0001:0006A348       JclDebug.AddIgnoredException
 0001:0006A378       JclDebug.IsIgnoredException
 0001:0006A508       JclDebug.DoExceptNotify
 0001:0006A594       JclDebug.JclStopExceptionTracking
 0001:0006A5C4       JclDebug.IsDebuggerAttached
 0001:0006A660       JclDebug.Finalization
 0001:0006A7B8       FastMM_FullDebugMode.GetFrameBasedStackTrace
 0001:0006A810       FastMM_FullDebugMode.UpdateMemoryPageAccessMap
 0001:0006A87C       FastMM_FullDebugMode.IsValidCallSite
 0001:0006AA68       FastMM_FullDebugMode.GetRawStackTrace
 0001:0006AB9C       FastMM_FullDebugMode.CardinalToHexBuf
 0001:0006AC54       FastMM_FullDebugMode.AppendInfoToString
 0001:0006ACE8       FastMM_FullDebugMode.LogStackTrace
 0001:0006AE90       FastMM_FullDebugMode.Finalization
 0002:00000000       System.System
 0002:000000AC       Windows.Windows
 0002:000000C4       FastMM4.FastMM4
 0002:000000DC       SysUtils.TEncoding.Create@
 0002:000000E4       SysUtils.Exception.Create@
 0002:000000F4       SysUtils.SysUtils
 0002:00000190       VarUtils.VarUtils
 0002:000001A0       Variants.Variants
 0002:0000024C       TypInfo.TypInfo
 0002:00000254       Classes.Classes
 0002:000002E4       SyncObjs.SyncObjs
 0002:000002F4       JclResources.JclResources
 0002:00000310       JclBase.JclBase
 0002:00000330       JclWin32.JclWin32
 0002:0000034C       JclLogic.JclLogic
 0002:00000368       AnsiStrings.AnsiStrings
 0002:0000037C       JclStringConversions.JclStringConversions
 0002:00000398       JclCharsets.JclCharsets
 0002:000003B4       Jcl8087.Jcl8087
 0002:000003D0       JclMath.JclMath
 0002:000003EC       ComObj.ComObj
 0002:00000444       Snmp.Snmp
 0002:00000464       JclStrings.JclStrings
 0002:00000488       JclRegistry.JclRegistry
 0002:000004AC       IOUtils.TPath.Create@
 0002:00000904       IOUtils.IOUtils
 0002:0000090C       IniFiles.IniFiles
 0002:00000914       JclIniFiles.JclIniFiles
 0002:00000930       JclSysInfo.JclSysInfo
 0002:00000958       JclUnicode.JclUnicode
 0002:000009A0       JclWideStrings.JclWideStrings
 0002:000009BC       JclShell.JclShell
 0002:000009D8       JclSecurity.JclSecurity
 0002:000009F4       JclDateTime.JclDateTime
 0002:00000A10       JclFileUtils.JclFileUtils
 0002:00000A2C       JclConsole.JclConsole
 0002:00000A48       JclSysUtils.JclSysUtils
 0002:00000A68       JclStreams.JclStreams
 0002:00000A84       JclAnsiStrings.JclAnsiStrings
 0002:00000AA8       JclSynch.JclSynch
 0002:00000AC4       JclUnitVersioning.JclUnitVersioning
 0002:00000AE0       JclPeImage.JclPeImage
 0002:00000AFC       JclTD32.JclTD32
 0002:00000B18       JclHookExcept.JclHookExcept
 0002:00000B54       JclDebug.JclDebug
 0002:00000BAC       FastMM_FullDebugMode.FastMM_FullDebugMode
 0003:00000000       System.ExitCode
 0003:00000004       System.ErrorAddr
 0003:00000008       System.RandSeed
 0003:0000000C       System.FileMode
 0003:00000010       System.VarClearProc
 0003:00000014       System.VarAddRefProc
 0003:00000018       System.VarCopyProc
 0003:0000001C       System.VarToLStrProc
 0003:00000020       System.VarToWStrProc
 0003:00000024       System.Default8087CW
 0003:00000028       System.DebugHook
 0003:0000002C       System.JITEnable
 0003:00000030       System.NoErrMsg
 0003:00000034       System.LibModuleList
 0003:00000038       System.ModuleUnloadList
 0003:0000003C       System.ObjCastGUID
 0003:0000004C       System.Copyright
 0003:00000050       System.LeakMessageHeader
 0003:00000054       System.SmallLeakDetail
 0003:00000058       System.LargeLeakDetail
 0003:0000005C       System.BytesMessage
 0003:00000060       System.UnknownClassNameMsg
 0003:00000064       System.AnsiStringBlockMessage
 0003:00000068       System.UnicodeStringBlockMessage
 0003:0000006C       System.LeakMessageFooter
 0003:00000070       System.LeakMessageTitle
 0003:00000074       System.SmallBlockTypes
 0003:00000754       System.MemoryManager
 0003:0000076C       System.reMap
 0003:00000788       System.errCaption
 0003:00000790       System.runErrMsg
 0003:000007B0       System.hexDigits
 0003:000007C0       System.EmptyStringW
 0003:000007D0       System.LocaleTable
 0003:000009D8       System.hexdig
 0003:000009DC       System...
 0003:000009E0       System.@__pfnDliFailureHook
 0003:000009E4       System.@__pfnDliNotifyHook
 0003:000009E8       SysInit.TlsIndex
 0003:000009EC       SysInit.PtrToNil
 0003:000009F0       SysInit.Module
 0003:00000A0C       SysInit.TlsProc
 0003:00000A1C       Windows.Win32MajorVersion
 0003:00000A20       Windows.Win32MinorVersion
 0003:00000A24       Windows.Win32Platform
 0003:00000A28       FastMM4.Copyright
 0003:00000A2C       FastMM4.SmallBlockTypes
 0003:0000110C       Character.Latin1Categories
 0003:0000120C       SysUtils.EmptyStr
 0003:00001210       SysUtils.EmptyWideStr
 0003:00001214       SysUtils.EmptyAnsiStr
 0003:00001218       SysUtils.Win32Platform
 0003:0000121C       SysUtils.Win32MajorVersion
 0003:00001220       SysUtils.Win32MinorVersion
 0003:00001224       SysUtils.Win32BuildNumber
 0003:00001228       SysUtils.Win32CSDVersion
 0003:0000122C       SysUtils.TwoDigitYearCenturyWindow
 0003:00001230       SysUtils.MonthDays
 0003:00001260       SysUtils.LeadBytes
 0003:00001280       SysUtils.HexDisplayPrefix
 0003:00001284       SysUtils.GetDiskFreeSpaceEx
 0003:00001288       SysUtils.cSimpleBoolStrs
 0003:00001290       SysUtils.AccessMode
 0003:0000129C       SysUtils.ShareMode
 0003:000012B0       SysUtils.ShareMode
 0003:000012C4       SysUtils.FormatErrorStrs
 0003:000012CC       SysUtils.FCon1E18
 0003:000012D8       SysUtils.DCon10
 0003:000012DC       SysUtils.CWNear
 0003:000012E0       SysUtils.FMSecsPerDay
 0003:000012E4       SysUtils.IMSecsPerDay
 0003:000012E8       SysUtils.Format
 0003:000012F0       SysUtils.DefShortMonthNames
 0003:00001320       SysUtils.DefLongMonthNames
 0003:00001350       SysUtils.DefShortDayNames
 0003:0000136C       SysUtils.DefLongDayNames
 0003:00001388       SysUtils.ErrorMap
 0003:000013C0       SysUtils.ExceptTypes
 0003:0000140C       SysUtils.ExceptMap
 0003:000014CC       SysUtils.MonitorSupport
 0003:000014E0       SysUtils.TerminateProcList
 0003:000014E4       SysUtils.DefaultFallbackLanguages
 0003:000014E8       ActiveX.GUID_NULL
 0003:000014F8       VarUtils.CResult
 0003:00001500       Variants.NullEqualityRule
 0003:00001504       Variants.NullMagnitudeRule
 0003:00001508       Variants.NullStrictConvert
 0003:0000150C       Variants.NullAsStringValue
 0003:00001510       Variants.PackVarCreation
 0003:00001514       Variants.BooleanToStringRule
 0003:00001518       Variants.BaseTypeMap
 0003:00001530       Variants.CInvalidCustomVariantType
 0003:00001534       Variants.CRangeToType
 0003:00001548       Variants.CBooleanToRelationship
 0003:00001554       Variants.CmpTypeMap
 0003:000015E4       Variants.CText
 0003:0000163C       Variants.LNextVarType
 0003:00001640       Variants.CRelationshipToBoolean
 0003:00001654       TypInfo.BooleanIdents
 0003:0000165C       TypInfo.DotSep
 0003:00001660       Classes.CreateVCLComObjectProc
 0003:00001664       Classes.FilerSignature
 0003:00001668       Classes.Dummy32bitResHeader
 0003:00001688       Classes.NilMethod
 0003:00001690       Classes.Convert
 0003:000016A0       Classes.Blanks
 0003:000016A4       JclResources.UnitVersioning
 0003:000016BC       JclBase.UCS4ReplacementCharacter
 0003:000016C0       JclBase.MaximumUCS2
 0003:000016C4       JclBase.MaximumUTF16
 0003:000016C8       JclBase.MaximumUCS4
 0003:000016CC       JclBase.UnitVersioning
 0003:000016E4       JclWin32.UnitVersioning
 0003:000016FC       JclWin32._CheckSumMappedFile
 0003:00001700       JclWin32._GetImageUnusedHeaderBytes
 0003:00001704       JclWin32._MapAndLoad
 0003:00001708       JclWin32._UnMapAndLoad
 0003:0000170C       JclWin32._ImageDirectoryEntryToData
 0003:00001710       JclWin32._ImageRvaToSection
 0003:00001714       JclWin32._ImageRvaToVa
 0003:00001718       JclWin32._CreateToolhelp32Snapshot
 0003:0000171C       JclLogic.UnitVersioning
 0003:00001734       AnsiStrings.FormatErrorStrs
 0003:0000173C       JclStringConversions.UnitVersioning
 0003:00001754       JclStringConversions.HalfShift
 0003:00001758       JclStringConversions.HalfBase
 0003:0000175C       JclStringConversions.HalfMask
 0003:00001760       JclCharsets.JclCharsetInfos
 0003:000020F0       JclCharsets.UnitVersioning
 0003:00002108       Jcl8087.UnitVersioning
 0003:00002120       JclMath.UnitVersioning
 0003:00002138       JclMath.RectComplexFormatStr
 0003:0000213C       JclMath.PolarComplexFormatStr
 0003:00002140       ComObj.CoCreateInstanceEx
 0003:00002144       ComObj.CoInitializeEx
 0003:00002148       ComObj.CoAddRefServerProcess
 0003:0000214C       ComObj.CoReleaseServerProcess
 0003:00002150       ComObj.CoResumeClassObjects
 0003:00002154       ComObj.CoSuspendClassObjects
 0003:00002158       ComObj.CoInitFlags
 0003:0000215C       ComObj.ThreadStrs
 0003:00002170       Snmp.UnitVersioning
 0003:00002188       JclStrings.StrCaseMapReady
 0003:0000218C       JclStrings.UnitVersioning
 0003:000021A4       JclStrings.BoolToStr
 0003:000021AC       JclRegistry.RootKeys
 0003:00002254       JclRegistry.UnitVersioning
 0003:0000226C       IOUtils.TPath.FCCurrentDir
 0003:00002270       IOUtils.TPath.FCParentDir
 0003:00002274       IOUtils.TPath.FCExtendedPrefix
 0003:00002278       IOUtils.TPath.FCExtendedUNCPrefix
 0003:0000227C       IniFiles.TCustomIniFile.SectionNameSeparator
 0003:00002280       IniFiles.Values
 0003:00002288       JclIniFiles.UnitVersioning
 0003:000022A0       JclSysInfo.IsWin95
 0003:000022A4       JclSysInfo.IsWin95OSR2
 0003:000022A8       JclSysInfo.IsWin98
 0003:000022AC       JclSysInfo.IsWin98SE
 0003:000022B0       JclSysInfo.IsWinME
 0003:000022B4       JclSysInfo.IsWinNT
 0003:000022B8       JclSysInfo.IsWinNT3
 0003:000022BC       JclSysInfo.IsWinNT31
 0003:000022C0       JclSysInfo.IsWinNT35
 0003:000022C4       JclSysInfo.IsWinNT351
 0003:000022C8       JclSysInfo.IsWinNT4
 0003:000022CC       JclSysInfo.IsWin2K
 0003:000022D0       JclSysInfo.IsWinXP
 0003:000022D4       JclSysInfo.IsWin2003
 0003:000022D8       JclSysInfo.IsWinXP64
 0003:000022DC       JclSysInfo.IsWin2003R2
 0003:000022E0       JclSysInfo.IsWinVista
 0003:000022E4       JclSysInfo.IsWinServer2008
 0003:000022E8       JclSysInfo.IsWin7
 0003:000022EC       JclSysInfo.IsWinServer2008R2
 0003:000022F0       JclSysInfo.IntelCacheDescription
 0003:00002AFC       JclSysInfo.ProcessorCount
 0003:00002B00       JclSysInfo.AllocGranularity
 0003:00002B04       JclSysInfo.PageSize
 0003:00002B08       JclSysInfo.UnitVersioning
 0003:00002B20       JclUnicode.UnicodeBlockData
 0003:00003264       JclUnicode.UnitVersioning
 0003:0000327C       JclWideStrings.UnitVersioning
 0003:00003294       JclShell.RtdlMsiLibHandle
 0003:00003298       JclShell.UnitVersioning
 0003:000032B0       JclSecurity.UnitVersioning
 0003:000032C8       JclDateTime.UnitVersioning
 0003:000032E0       JclDateTime.FileTimeStep
 0003:000032EC       JclFileUtils.UnitVersioning
 0003:00003304       JclFileUtils.VerKeyNames
 0003:00003334       JclConsole.UnitVersioning
 0003:0000334C       JclSysUtils.UnitVersioning
 0003:00003364       JclSysUtils.MMFHandleList
 0003:00003368       JclSysUtils.MMFFinalized
 0003:0000336C       JclSysUtils.GlobalMMFHandleListCS
 0003:00003370       JclSysUtils.InfMantissa
 0003:00003378       JclStreams.UnitVersioning
 0003:00003390       JclAnsiStrings.AnsiCaseMapReady
 0003:00003394       JclAnsiStrings.UnitVersioning
 0003:000033AC       JclSynch.UnitVersioning
 0003:000033C4       JclUnitVersioning.UnitVersioning
 0003:000033DC       JclUnitVersioning.UnitVersioningOwner
 0003:000033E0       JclUnitVersioning.GlobalUnitVersioning
 0003:000033E4       JclUnitVersioning.UnitVersioningNPA
 0003:000033E8       JclUnitVersioning.UnitVersioningFinalized
 0003:000033EC       JclPeImage.UnitVersioning
 0003:00003404       JclPeImage.SortFunctions
 0003:00003424       JclPeImage.SortFunctions
 0003:0000342C       JclPeImage.SortFunctions
 0003:00003464       JclPeImage.Info
 0003:00003494       JclPeImage.FilerSignature
 0003:00003498       JclPeImage.UndecorateSymbolNameA
 0003:0000349C       JclPeImage.UndecorateSymbolNameAFailed
 0003:000034A0       JclPeImage.UndecorateSymbolNameW
 0003:000034A4       JclPeImage.UndecorateSymbolNameWFailed
 0003:000034A8       JclTD32.UnitVersioning
 0003:000034C0       JclHookExcept.UnitVersioning
 0003:000034D8       JclDebug.JclStackTrackingOptions
 0003:000034DC       JclDebug.JclDebugInfoSymbolPaths
 0003:000034E0       JclDebug.UnitVersioning
 0003:000034F8       JclDebug.TableHeader
 0003:00003508       JclDebug.SegmentsHeader
 0003:00003518       JclDebug.PublicsByNameHeader
 0003:00003528       JclDebug.PublicsByValueHeader
 0003:00003538       JclDebug.LineNumbersPrefix
 0003:0000353C       JclDebug.DebugInfoList
 0003:00003540       JclDebug.InfoSourceClassList
 0003:00003544       JclDebug.DebugSymbolsInitialized
 0003:00003548       JclDebug.DebugSymbolsLoadFailed
 0003:0000354C       JclDebug.ImageHlpDllHandle
 0003:00003550       JclDebug.SymInitializeAFunc
 0003:00003554       JclDebug.SymInitializeWFunc
 0003:00003558       JclDebug.SymGetOptionsFunc
 0003:0000355C       JclDebug.SymSetOptionsFunc
 0003:00003560       JclDebug.SymCleanupFunc
 0003:00003564       JclDebug.SymGetSymFromAddrAFunc
 0003:00003568       JclDebug.SymGetSymFromAddrWFunc
 0003:0000356C       JclDebug.SymGetModuleInfoAFunc
 0003:00003570       JclDebug.SymGetModuleInfoWFunc
 0003:00003574       JclDebug.SymLoadModuleFunc
 0003:00003578       JclDebug.SymGetLineFromAddrAFunc
 0003:0000357C       JclDebug.SymGetLineFromAddrWFunc
 0003:00003580       JclDebug.IgnoredExceptions
 0003:00003584       JclDebug.IgnoredExceptionClassNames
 0003:00003588       JclDebug.IgnoredExceptionClassNamesCritSect
 0003:0000358C       FastMM_FullDebugMode.HexTable
 0004:00000000       System.DispCallByIDProc
 0004:00000004       System.ExceptProc
 0004:00000008       System.ErrorProc
 0004:0000000C       System.ExceptClsProc
 0004:00000010       System.ExceptObjProc
 0004:00000014       System.RaiseExceptionProc
 0004:00000018       System.RTLUnwindProc
 0004:0000001C       System.RaiseExceptObjProc
 0004:00000020       System.ExceptionAcquired
 0004:00000024       System.ExceptionClass
 0004:00000028       System.SafeCallErrorProc
 0004:0000002C       System.AssertErrorProc
 0004:00000030       System.ExitProcessProc
 0004:00000034       System.AbstractErrorProc
 0004:00000038       System.MainInstance
 0004:0000003C       System.MainThreadID
 0004:00000040       System.IsLibrary
 0004:00000044       System.CmdShow
 0004:00000048       System.CmdLine
 0004:0000004C       System.InitProc
 0004:00000050       System.ExitProc
 0004:00000054       System.IsConsole
 0004:00000055       System.IsMultiThread
 0004:00000056       System.Test8086
 0004:00000058       System.CPUCount
 0004:0000005C       System.Input
 0004:0000032C       System.Output
 0004:000005FC       System.ErrOutput
 0004:000008CC       System.MonitorSupport
 0004:000008D0       System.DefaultSystemCodePage
 0004:000008D4       System.DefaultUnicodeCodePage
 0004:000008D8       System.UTF8CompareLocale
 0004:000008DC       System.ReportMemoryLeaksOnShutdown
 0004:000008DD       System.NeverSleepOnMMThreadContention
 0004:000008E0       System..8
 0004:000008E4       System.AllocSize2SmallBlockTypeIndX4
 0004:00000A2A       System.MinimumBlockAlignment
 0004:00000A2C       System.MediumBlockPoolsCircularList
 0004:00000A3C       System.MediumBlocksLocked
 0004:00000A40       System.LastSequentiallyFedMediumBlock
 0004:00000A44       System.MediumSequentialFeedBytesLeft
 0004:00000A48       System.MediumBlockBinGroupBitmap
 0004:00000A4C       System.MediumBlockBinBitmaps
 0004:00000ACC       System.MediumBlockBins
 0004:00002ACC       System.LargeBlocksLocked
 0004:00002AD0       System.LargeBlocksCircularList
 0004:00002AE0       System.ExpectedMemoryLeaks
 0004:00002AE4       System.ExpectedMemoryLeaksListLocked
 0004:00002AE8       System.MappingObjectHandle
 0004:00002AEC       System.InitContext
 0004:00002B1C       System.DLLThreadContext
 0004:00002B4C       System.GetThreadPreferredUILanguages
 0004:00002B50       System.SetThreadPreferredUILanguages
 0004:00002B54       System.GetThreadUILanguage
 0004:00002B58       System.UseThreadUILanguageAPI
 0004:00002B5C       System.CrSec
 0004:00002B74       System.CachedLangID
 0004:00002B78       System.CachedLanguageNames
 0004:00002C24       System...
 0004:00002C3C       SysInit.ModuleIsLib
 0004:00002C3D       SysInit.ModuleIsCpp
 0004:00002C40       SysInit.HInstance
 0004:00002C44       SysInit.DllProc
 0004:00002C48       SysInit.tlsBuffer
 0004:00002C4C       Windows..2
 0004:00002C50       Windows.HtmlHelpModule
 0004:00002C54       FastMM4.SuppressMessageBoxes
 0004:00002C58       FastMM4..1
 0004:00002C5C       FastMM4.AllocSize2SmallBlockTypeIndX4
 0004:00002DA4       FastMM4.MediumBlockPoolsCircularList
 0004:00002DB4       FastMM4.MediumBlocksLocked
 0004:00002DB8       FastMM4.LastSequentiallyFedMediumBlock
 0004:00002DBC       FastMM4.MediumSequentialFeedBytesLeft
 0004:00002DC0       FastMM4.MediumBlockBinGroupBitmap
 0004:00002DC4       FastMM4.MediumBlockBinBitmaps
 0004:00002E44       FastMM4.MediumBlockBins
 0004:00004E44       FastMM4.LargeBlocksLocked
 0004:00004E48       FastMM4.LargeBlocksCircularList
 0004:00004E58       FastMM4.OldMemoryManager
 0004:00004E70       FastMM4.NewMemoryManager
 0004:00004E88       FastMM4.FastMMIsInstalled
 0004:00004E89       FastMM4.IsMemoryManagerOwner
 0004:00004E8A       FastMM4.ShowingMessageBox
 0004:00004E8C       Character.DataTable
 0004:00004E90       Character.CatIndexPrimary
 0004:00004E94       Character.CatIndexSecondary
 0004:00004E98       Character.CategoryTable
 0004:00004E9C       Character.NumIndexPrimary
 0004:00004EA0       Character.NumIndexSecondary
 0004:00004EA4       Character.NumericValueTable
 0004:00004EA8       SysUtils.Exception.$ClassInitFlag
 0004:00004EAC       SysUtils.Exception.GetExceptionStackInfoProc
 0004:00004EB0       SysUtils.Exception.GetStackInfoStringProc
 0004:00004EB4       SysUtils.Exception.CleanUpStackInfoProc
 0004:00004EB8       SysUtils.CurrencyString
 0004:00004EBC       SysUtils.CurrencyFormat
 0004:00004EBD       SysUtils.NegCurrFormat
 0004:00004EBE       SysUtils.ThousandSeparator
 0004:00004EC0       SysUtils.DecimalSeparator
 0004:00004EC2       SysUtils.CurrencyDecimals
 0004:00004EC4       SysUtils.DateSeparator
 0004:00004EC8       SysUtils.ShortDateFormat
 0004:00004ECC       SysUtils.LongDateFormat
 0004:00004ED0       SysUtils.TimeSeparator
 0004:00004ED4       SysUtils.TimeAMString
 0004:00004ED8       SysUtils.TimePMString
 0004:00004EDC       SysUtils.ShortTimeFormat
 0004:00004EE0       SysUtils.LongTimeFormat
 0004:00004EE4       SysUtils.ShortMonthNames
 0004:00004F14       SysUtils.LongMonthNames
 0004:00004F44       SysUtils.ShortDayNames
 0004:00004F60       SysUtils.LongDayNames
 0004:00004F7C       SysUtils.SysLocale
 0004:00004F8A       SysUtils.ListSeparator
 0004:00004F8C       SysUtils.EraNames
 0004:00004FA8       SysUtils.EraYearOffsets
 0004:00004FC4       SysUtils.TrueBoolStrs
 0004:00004FC8       SysUtils.FalseBoolStrs
 0004:00004FCC       SysUtils.TEncoding.FASCIIEncoding
 0004:00004FD0       SysUtils.TEncoding.FBigEndianUnicodeEncoding
 0004:00004FD4       SysUtils.TEncoding.FDefaultEncoding
 0004:00004FD8       SysUtils.TEncoding.FUnicodeEncoding
 0004:00004FDC       SysUtils.TEncoding.FUTF7Encoding
 0004:00004FE0       SysUtils.TEncoding.FUTF8Encoding
 0004:00004FE4       SysUtils.TEncoding.$ClassInitFlag
 0004:00004FE8       SysUtils..76
 0004:00004FEC       SysUtils.OutOfMemory
 0004:00004FF0       SysUtils.InvalidPointer
 0004:00004FF4       SysUtils.SyncEventCache
 0004:000050F4       SysUtils.EventCache
 0004:000050F8       SysUtils.EventItemHolders
 0004:000050FC       SysUtils.ValidatedUnitHashBuckets
 0004:000060F0       SysUtils.UnitHashBuckets
 0004:000070E4       SysUtils.LanguageArray
 0004:000070E8       VarUtils.VariantChangeTypeEx
 0004:000070EC       VarUtils.VarNeg
 0004:000070F0       VarUtils.VarNot
 0004:000070F4       VarUtils.VarAdd
 0004:000070F8       VarUtils.VarSub
 0004:000070FC       VarUtils.VarMul
 0004:00007100       VarUtils.VarDiv
 0004:00007104       VarUtils.VarIDiv
 0004:00007108       VarUtils.VarMod
 0004:0000710C       VarUtils.VarAnd
 0004:00007110       VarUtils.VarOr
 0004:00007114       VarUtils.VarXor
 0004:00007118       VarUtils.VarCmp
 0004:0000711C       VarUtils.VarI4FromStr
 0004:00007120       VarUtils.VarR4FromStr
 0004:00007124       VarUtils.VarR8FromStr
 0004:00007128       VarUtils.VarDateFromStr
 0004:0000712C       VarUtils.VarCyFromStr
 0004:00007130       VarUtils.VarBoolFromStr
 0004:00007134       VarUtils.VarBstrFromCy
 0004:00007138       VarUtils.VarBstrFromDate
 0004:0000713C       VarUtils.VarBstrFromBool
 0004:00007140       VarUtils..5
 0004:00007144       Variants.EmptyParam
 0004:00007154       Variants.VarDispProc
 0004:00007158       Variants.ClearAnyProc
 0004:0000715C       Variants.ChangeAnyProc
 0004:00007160       Variants.RefAnyProc
 0004:00007164       Variants..81
 0004:00007168       Variants.LVarTypes
 0004:0000716C       Variants.LVarTypeSync
 0004:00007184       TypInfo..5
 0004:00007188       Classes.GlobalNameSpace
 0004:0000718C       Classes.IsUniqueGlobalComponentNameProc
 0004:00007190       Classes..66
 0004:00007194       Classes.IntConstList
 0004:00007198       Classes.RegGroups
 0004:0000719C       Classes.FindGlobalComponentProcs
 0004:000071A0       Classes.GlobalFixupList
 0004:000071A4       Classes.InstBlockList
 0004:000071A8       Classes.InstFreeList
 0004:000071AC       SyncObjs..01
 0004:000071B0       SyncObjs.InitializeConditionVariableProc
 0004:000071B4       SyncObjs.SleepConditionVariableCSProc
 0004:000071B8       SyncObjs.WakeConditionVariableProc
 0004:000071BC       SyncObjs.WakeAllConditionVariableProc
 0004:000071C0       JclResources..1
 0004:000071C4       JclBase.AnsiReplacementCharacter
 0004:000071C8       JclBase..5
 0004:000071CC       JclWin32..2
 0004:000071D0       JclLogic..1
 0004:000071D4       AnsiStrings..1
 0004:000071D8       JclStringConversions..3
 0004:000071DC       JclCharsets..3
 0004:000071E0       Jcl8087..1
 0004:000071E4       JclMath..7
 0004:000071E8       ComObj..41
 0004:000071EC       ComObj.OleUninitializing
 0004:000071F0       ComObj.ComClassManagerVar
 0004:000071F4       ComObj.SaveInitProc
 0004:000071F8       ComObj.NeedToUninitialize
 0004:000071FC       Snmp..1
 0004:00007200       TlHelp32.KernelHandle
 0004:00007204       TlHelp32._CreateToolhelp32Snapshot
 0004:00007208       TlHelp32._Heap32ListFirst
 0004:0000720C       TlHelp32._Heap32ListNext
 0004:00007210       TlHelp32._Heap32First
 0004:00007214       TlHelp32._Heap32Next
 0004:00007218       TlHelp32._Toolhelp32ReadProcessMemory
 0004:0000721C       TlHelp32._Process32First
 0004:00007220       TlHelp32._Process32Next
 0004:00007224       TlHelp32._Process32FirstA
 0004:00007228       TlHelp32._Process32NextA
 0004:0000722C       TlHelp32._Process32FirstW
 0004:00007230       TlHelp32._Process32NextW
 0004:00007234       TlHelp32._Thread32First
 0004:00007238       TlHelp32._Thread32Next
 0004:0000723C       TlHelp32._Module32First
 0004:00007240       TlHelp32._Module32Next
 0004:00007244       TlHelp32._Module32FirstA
 0004:00007248       TlHelp32._Module32NextA
 0004:0000724C       TlHelp32._Module32FirstW
 0004:00007250       TlHelp32._Module32NextW
 0004:00007254       PsAPI.hPSAPI
 0004:00007258       PsAPI._EnumProcesses
 0004:0000725C       PsAPI._EnumProcessModules
 0004:00007260       PsAPI._GetModuleBaseName
 0004:00007264       PsAPI._GetModuleFileNameEx
 0004:00007268       PsAPI._GetModuleBaseNameA
 0004:0000726C       PsAPI._GetModuleFileNameExA
 0004:00007270       PsAPI._GetModuleBaseNameW
 0004:00007274       PsAPI._GetModuleFileNameExW
 0004:00007278       PsAPI._GetModuleInformation
 0004:0000727C       PsAPI._EmptyWorkingSet
 0004:00007280       PsAPI._QueryWorkingSet
 0004:00007284       PsAPI._InitializeProcessForWsWatch
 0004:00007288       PsAPI._GetMappedFileName
 0004:0000728C       PsAPI._GetDeviceDriverBaseName
 0004:00007290       PsAPI._GetDeviceDriverFileName
 0004:00007294       PsAPI._GetMappedFileNameA
 0004:00007298       PsAPI._GetDeviceDriverBaseNameA
 0004:0000729C       PsAPI._GetDeviceDriverFileNameA
 0004:000072A0       PsAPI._GetMappedFileNameW
 0004:000072A4       PsAPI._GetDeviceDriverBaseNameW
 0004:000072A8       PsAPI._GetDeviceDriverFileNameW
 0004:000072AC       PsAPI._EnumDeviceDrivers
 0004:000072B0       PsAPI._GetProcessMemoryInfo
 0004:000072B4       JclStrings.StrCaseMap
 0004:000672B4       JclStrings.StrCharTypes
 0004:000872B4       JclStrings..9
 0004:000872B8       JclRegistry..3
 0004:000872BC       IOUtils.TPath.FAltDirectorySeparatorChar
 0004:000872BE       IOUtils.TPath.FDirectorySeparatorChar
 0004:000872C0       IOUtils.TPath.FPathSeparator
 0004:000872C2       IOUtils.TPath.FVolumeSeparatorChar
 0004:000872C4       IOUtils.TPath.FExtensionSeparatorChar
 0004:000872C8       IOUtils.TPath.FInvalidPathChars
 0004:000872CC       IOUtils.TPath.FInvalidFileNameChars
 0004:000872D0       IOUtils.TPath.FPathWildcardChars
 0004:000872D4       IOUtils.TPath.FFileNameWildCardChars
 0004:000872D8       IOUtils.TPath.$ClassInitFlag
 0004:000872DC       IOUtils..1
 0004:000872E0       IniFiles..7
 0004:000872E4       JclIniFiles..1
 0004:000872E8       JclSysInfo..1
 0004:000872EC       JclSysInfo.KernelVersionHi
 0004:000872F0       JclSysInfo.ResmeterLibHandle
 0004:000872F4       JclSysInfo.MyGetFreeSystemResources
 0004:000872F8       JclUnicode.WideCompareText
 0004:000872FC       JclUnicode..8
 0004:00087300       JclUnicode.LoadInProgress
 0004:00087304       JclUnicode.Categories
 0004:00087704       JclUnicode.CaseMapping
 0004:00087B04       JclUnicode.CanonicalDecompositions
 0004:00087F04       JclUnicode.CompatibleDecompositions
 0004:00088304       JclUnicode.CCCs
 0004:00088704       JclUnicode.NumberCodes
 0004:00088708       JclUnicode.Numbers
 0004:0008870C       JclUnicode.Compositions
 0004:00088710       JclWideStrings..2
 0004:00088714       JclShell..1
 0004:00088718       JclSecurity..2
 0004:0008871C       JclDateTime..2
 0004:00088720       JclFileUtils..12
 0004:00088724       JclConsole..01
 0004:00088728       JclSysUtils.SimpleLog
 0004:0008872C       JclSysUtils..71
 0004:00088730       JclStreams..72
 0004:00088734       JclAnsiStrings.AnsiCaseMap
 0004:00088A34       JclAnsiStrings.AnsiCharTypes
 0004:00088C34       JclAnsiStrings..5
 0004:00088C38       JclSynch..91
 0004:00088C3C       JclUnitVersioning..5
 0004:00088C40       JclUnitVersioning.UnitVersioningMutex
 0004:00088C44       JclPeImage..82
 0004:00088C48       JclTD32..12
 0004:00088C4C       JclHookExcept..1
 0004:00088C50       JclHookExcept.Kernel32_RaiseException
 0004:00088C54       JclHookExcept.Notifiers
 0004:00088C58       JclHookExcept.Filters
 0004:00088C5C       JclDebug..23
 0004:00088C60       JclDebug.DebugInfoCritSect
 0004:00088C64       JclDebug.GlobalStackList
 0004:00088C68       JclDebug.GlobalModulesList
 0004:00088C6C       JclDebug.TrackingActiveCount
 0004:00088C70       JclDebug.RegisteredThreadList
 0004:00088C74       FastMM_FullDebugMode.MemoryPageAccessMap
 0005:00000000       System.RaiseListPtr
 0005:00000004       System.InOutRes
 0005:00000008       Classes.GlobalLoaded
 0005:0000000C       Classes.GlobalLists
 0005:00000010       JclHookExcept.Recursive
 0005:00000014       JclHookExcept.NewResultExc
 0005:00000018       SysInit.TlsLast


Line numbers for FastMM4Messages(..\FastMM4Messages.pas) segment .text

   133 0001:00000000

Line numbers for FastMM4(..\FastMM4.pas) segment .text

  1954 0001:0000A234  1959 0001:0000A238  1967 0001:0000A23C  1968 0001:0000A23F
  1979 0001:0000A240  1980 0001:0000A24B  1983 0001:0000A253  1986 0001:0000A255
  1990 0001:0000A261  1998 0001:0000A264  2000 0001:0000A26B  2002 0001:0000A274
  2005 0001:0000A278  2006 0001:0000A27D  2010 0001:0000A281  2011 0001:0000A282
  2007 0001:0000A283  2014 0001:0000A28C  2015 0001:0000A28D  2016 0001:0000A296
  2017 0001:0000A298  2018 0001:0000A29B  2019 0001:0000A29C  2020 0001:0000A29F
  2025 0001:0000A2A2  2026 0001:0000A2A4  2028 0001:0000A2A5  2023 0001:0000A2A6
  2030 0001:0000A2AD  2031 0001:0000A2B0  2032 0001:0000A2B2  2655 0001:0000A2B8
  2657 0001:0000A2CA  2658 0001:0000A2D1  2660 0001:0000A2DF  2662 0001:0000A2E6
  2852 0001:0000A2E8  2858 0001:0000A2F4  2859 0001:0000A2FB  2861 0001:0000A30D
  2855 0001:0000A314  2865 0001:0000A326  2917 0001:0000A328  2918 0001:0000A32B
  2920 0001:0000A32D  2921 0001:0000A330  2924 0001:0000A332  2927 0001:0000A336
  2928 0001:0000A33F  2930 0001:0000A344  2933 0001:0000A359  2936 0001:0000A363
  2940 0001:0000A374  2990 0001:0000A378  2993 0001:0000A379  2994 0001:0000A384
  2995 0001:0000A38C  2997 0001:0000A391  2999 0001:0000A398  3000 0001:0000A39B
  3001 0001:0000A39D  3002 0001:0000A3A0  3003 0001:0000A3A2  3005 0001:0000A3A5
  3008 0001:0000A3A9  3010 0001:0000A3AE  3013 0001:0000A3C1  3016 0001:0000A3D0
  3073 0001:0000A3D4  3074 0001:0000A3D6  3075 0001:0000A3DC  3078 0001:0000A3E0
  3079 0001:0000A3E5  3081 0001:0000A3EE  3084 0001:0000A3F0  3087 0001:0000A3F5
  3089 0001:0000A3FC  3090 0001:0000A404  3096 0001:0000A40B  3101 0001:0000A410
  3103 0001:0000A421  3116 0001:0000A428  3117 0001:0000A430  3119 0001:0000A439
  3189 0001:0000A43C  3191 0001:0000A43F  3193 0001:0000A444  3195 0001:0000A457
  3198 0001:0000A45B  3199 0001:0000A461  3200 0001:0000A469  3201 0001:0000A46E
  3202 0001:0000A471  3204 0001:0000A473  3206 0001:0000A486  3208 0001:0000A493
  3209 0001:0000A497  3211 0001:0000A49C  3216 0001:0000A4A8  3217 0001:0000A4AF
  3219 0001:0000A4B1  3242 0001:0000A4B4  3248 0001:0000A4C0  3249 0001:0000A4C7
  3251 0001:0000A4D9  3245 0001:0000A4E0  3255 0001:0000A4F2  3265 0001:0000A4F4
  3269 0001:0000A4FA  3272 0001:0000A50A  3275 0001:0000A51B  3278 0001:0000A51F
  3279 0001:0000A524  3281 0001:0000A52A  3282 0001:0000A52F  3283 0001:0000A534
  3284 0001:0000A53A  3285 0001:0000A540  3286 0001:0000A543  3287 0001:0000A545
  3289 0001:0000A54C  3297 0001:0000A54F  3308 0001:0000A558  3310 0001:0000A561
  3312 0001:0000A564  3313 0001:0000A569  3314 0001:0000A570  3317 0001:0000A577
  3321 0001:0000A57F  3322 0001:0000A590  3324 0001:0000A594  3330 0001:0000A599
  3331 0001:0000A59B  3332 0001:0000A5A0  3336 0001:0000A5A2  3338 0001:0000A5AF
  3340 0001:0000A5C0  3341 0001:0000A5C3  3344 0001:0000A5C5  3347 0001:0000A5CD
  3348 0001:0000A5CF  3333 0001:0000A5D1  3353 0001:0000A5D3  3356 0001:0000A5D7
  3357 0001:0000A5E0  3360 0001:0000A5EA  3361 0001:0000A5F1  3375 0001:0000A5FC
  3377 0001:0000A607  3379 0001:0000A60E  3381 0001:0000A616  3388 0001:0000A61E
  3390 0001:0000A625  3391 0001:0000A629  3393 0001:0000A62D  3397 0001:0000A62F
  3398 0001:0000A63C  3399 0001:0000A64D  3402 0001:0000A657  3404 0001:0000A65F
  3408 0001:0000A66B  3409 0001:0000A67E  3410 0001:0000A682  3413 0001:0000A684
  3417 0001:0000A6B0  3418 0001:0000A6B8  3422 0001:0000A6C3  3423 0001:0000A6C5
  3429 0001:0000A6C7  3430 0001:0000A6D0  3435 0001:0000A6D4  3436 0001:0000A6DC
  3438 0001:0000A6E4  3443 0001:0000A6EC  3446 0001:0000A6F6  3453 0001:0000A6FF
  3456 0001:0000A705  3458 0001:0000A707  3464 0001:0000A70F  3465 0001:0000A718
  3468 0001:0000A71C  3469 0001:0000A724  3478 0001:0000A72C  3481 0001:0000A737
  3485 0001:0000A73E  3504 0001:0000A748  3507 0001:0000A74D  3511 0001:0000A75B
  3516 0001:0000A776  3522 0001:0000A780  3525 0001:0000A78F  3526 0001:0000A792
  3529 0001:0000A7A1  3530 0001:0000A7A4  3533 0001:0000A7B3  3536 0001:0000A7B6
  3538 0001:0000A7BD  3541 0001:0000A7CC  3519 0001:0000A7D3  3546 0001:0000A7D5
  3548 0001:0000A7D8  3551 0001:0000A7DC  3553 0001:0000A7DF  3563 0001:0000A7E6
  3565 0001:0000A7E9  3567 0001:0000A7EC  3569 0001:0000A7EF  3572 0001:0000A7F7
  3573 0001:0000A7FA  3574 0001:0000A7FD  3580 0001:0000A805  3582 0001:0000A808
  3585 0001:0000A80F  3587 0001:0000A812  3589 0001:0000A815  3594 0001:0000A823
  3597 0001:0000A828  3598 0001:0000A837  3601 0001:0000A83F  3603 0001:0000A846
  3605 0001:0000A85B  3607 0001:0000A862  3609 0001:0000A868  3610 0001:0000A86E
  3611 0001:0000A871  3613 0001:0000A873  3616 0001:0000A877  3619 0001:0000A88C
  3622 0001:0000A896  3627 0001:0000A8A7  3643 0001:0000A8B4  3646 0001:0000A8BC
  3648 0001:0000A8C4  3650 0001:0000A8C6  3651 0001:0000A8C8  3653 0001:0000A8D7
  3655 0001:0000A8DE  3660 0001:0000A8E6  3661 0001:0000A8ED  3668 0001:0000A8F2
  3669 0001:0000A8F7  3672 0001:0000A8FF  3674 0001:0000A910  3677 0001:0000A915
  3679 0001:0000A917  3681 0001:0000A922  3682 0001:0000A92B  3688 0001:0000A934
  3690 0001:0000A938  3691 0001:0000A942  3695 0001:0000A948  3697 0001:0000A94F
  3699 0001:0000A952  3701 0001:0000A954  3709 0001:0000A959  3711 0001:0000A969
  3713 0001:0000A970  3714 0001:0000A973  3715 0001:0000A975  3716 0001:0000A97A
  3718 0001:0000A981  3719 0001:0000A984  3720 0001:0000A98B  3721 0001:0000A994
  3734 0001:0000A99F  3736 0001:0000A9A2  3741 0001:0000A9AE  3746 0001:0000A9BA
  3749 0001:0000A9CB  3751 0001:0000A9D6  3753 0001:0000A9DB  3755 0001:0000A9E0
  3756 0001:0000A9F5  3759 0001:0000A9F9  3765 0001:0000AA0B  3766 0001:0000AA1C
  3769 0001:0000AA20  3771 0001:0000AA27  3778 0001:0000AA3E  3779 0001:0000AA43
  3789 0001:0000AA47  3791 0001:0000AA4F  3793 0001:0000AA55  3795 0001:0000AA5C
  3800 0001:0000AA68  3815 0001:0000AA71  3816 0001:0000AA78  3824 0001:0000AA7A
  3826 0001:0000AA81  3844 0001:0000AA84  3846 0001:0000AA8B  3849 0001:0000AA97
  3850 0001:0000AA99  3853 0001:0000AA9D  3855 0001:0000AA9F  3857 0001:0000AAAC
  3859 0001:0000AAB5  3860 0001:0000AABC  3869 0001:0000AAC4  3881 0001:0000AACB
  3886 0001:0000AACE  3892 0001:0000AAD3  3897 0001:0000AADC  3898 0001:0000AAE0
  3900 0001:0000AAE9  3903 0001:0000AAEB  4359 0001:0000AAF4  4361 0001:0000AAF9
  4363 0001:0000AB02  4365 0001:0000AB07  4367 0001:0000AB0C  4368 0001:0000AB10
  4379 0001:0000AB17  4382 0001:0000AB1B  4384 0001:0000AB22  4385 0001:0000AB29
  4391 0001:0000AB32  4397 0001:0000AB3A  4400 0001:0000AB44  4402 0001:0000AB4B
  4413 0001:0000AB4F  4415 0001:0000AB51  4417 0001:0000AB53  4418 0001:0000AB5A
  4432 0001:0000AB61  4435 0001:0000AB69  4441 0001:0000AB77  4445 0001:0000AB7E
  4461 0001:0000AB87  4463 0001:0000AB8E  4469 0001:0000AB92  4472 0001:0000AB9E
  4475 0001:0000ABA3  4477 0001:0000ABB2  4479 0001:0000ABBC  4481 0001:0000ABC1
  4483 0001:0000ABC8  4488 0001:0000ABCC  4489 0001:0000ABCF  4490 0001:0000ABD3
  4491 0001:0000ABD6  4492 0001:0000ABD9  4494 0001:0000ABDB  4496 0001:0000ABE2
  4497 0001:0000ABF3  4499 0001:0000ABF7  4503 0001:0000ABFA  4513 0001:0000AC00
  4515 0001:0000AC06  4517 0001:0000AC0D  4520 0001:0000AC15  4522 0001:0000AC17
  4525 0001:0000AC19  4531 0001:0000AC25  4532 0001:0000AC2C  4534 0001:0000AC3B
  4528 0001:0000AC42  4539 0001:0000AC53  4541 0001:0000AC56  4544 0001:0000AC5A
  4545 0001:0000AC5D  4546 0001:0000AC60  4547 0001:0000AC63  4548 0001:0000AC66
  4551 0001:0000AC69  4553 0001:0000AC73  4555 0001:0000AC76  4561 0001:0000AC79
  4564 0001:0000AC7F  4565 0001:0000AC82  4567 0001:0000AC85  4568 0001:0000AC88
  4570 0001:0000AC8B  4571 0001:0000AC90  4573 0001:0000AC95  4575 0001:0000AC98
  4581 0001:0000ACA1  4586 0001:0000ACA4  4591 0001:0000ACA8  4593 0001:0000ACAC
  4599 0001:0000ACB5  4600 0001:0000ACB9  4602 0001:0000ACC2  4605 0001:0000ACC5
  4935 0001:0000ACCC  4937 0001:0000ACCF  4938 0001:0000ACDB  4940 0001:0000ACE6
  4941 0001:0000ACFD  4942 0001:0000AD0B  4944 0001:0000AD19  4946 0001:0000AD25
  4948 0001:0000AD3E  4950 0001:0000AD55  4953 0001:0000AD5E  4955 0001:0000AD67
  4956 0001:0000AD79  4962 0001:0000AD84  4964 0001:0000AD96  4966 0001:0000ADAA
  4968 0001:0000ADC1  4969 0001:0000ADCD  4972 0001:0000ADDE  4973 0001:0000ADF5
  4978 0001:0000ADF8  4980 0001:0000AE09  4982 0001:0000AE22  4984 0001:0000AE33
  4986 0001:0000AE38  4990 0001:0000AE51  4991 0001:0000AE62  4992 0001:0000AE6F
  4995 0001:0000AE78  5001 0001:0000AE85  5002 0001:0000AE8C  5003 0001:0000AE94
  5004 0001:0000AEA0  5007 0001:0000AEA7  5009 0001:0000AEB5  5011 0001:0000AEC1
  5013 0001:0000AECC  5014 0001:0000AED4  5016 0001:0000AEDD  5017 0001:0000AEE4
  5019 0001:0000AEE8  5021 0001:0000AEF5  5023 0001:0000AEFF  5027 0001:0000AF07
  5029 0001:0000AF09  5031 0001:0000AF13  5036 0001:0000AF1B  5039 0001:0000AF27
  5040 0001:0000AF2A  5045 0001:0000AF2F  5047 0001:0000AF39  5057 0001:0000AF41
  5060 0001:0000AF4E  5071 0001:0000AF5B  5073 0001:0000AF66  5074 0001:0000AF6B
  5076 0001:0000AF71  5078 0001:0000AF7B  5082 0001:0000AF83  5083 0001:0000AF8C
  5088 0001:0000AF97  5091 0001:0000AFA4  5098 0001:0000AFB1  5102 0001:0000AFB9
  5104 0001:0000AFC1  5106 0001:0000AFC7  5108 0001:0000AFCB  5111 0001:0000AFD7
  5113 0001:0000AFE2  5115 0001:0000AFEC  5117 0001:0000AFF2  5119 0001:0000AFF8
  5124 0001:0000AFFD  5129 0001:0000B008  5131 0001:0000B00D  5133 0001:0000B01B
  5135 0001:0000B026  5137 0001:0000B02C  5139 0001:0000B032  5143 0001:0000B040
  5145 0001:0000B047  5147 0001:0000B04E  5149 0001:0000B051  5152 0001:0000B056
  5158 0001:0000B05F  5160 0001:0000B065  5162 0001:0000B06C  5164 0001:0000B06F
  5172 0001:0000B074  5173 0001:0000B080  5174 0001:0000B088  5176 0001:0000B090
  5178 0001:0000B096  5179 0001:0000B0A0  5182 0001:0000B0A8  5183 0001:0000B0B1
  5188 0001:0000B0BC  5191 0001:0000B0C9  5197 0001:0000B0D6  5199 0001:0000B0E0
  5206 0001:0000B0E5  5208 0001:0000B0EE  5209 0001:0000B0F5  5218 0001:0000B0FA
  5223 0001:0000B102  5225 0001:0000B109  5226 0001:0000B111  5227 0001:0000B118
  5232 0001:0000B11D  5233 0001:0000B127  5243 0001:0000B12B  5246 0001:0000B138
  5256 0001:0000B142  5259 0001:0000B146  5265 0001:0000B155  5269 0001:0000B157
  5759 0001:0000B160  5760 0001:0000B164  5762 0001:0000B16D  5763 0001:0000B179
  5764 0001:0000B184  7615 0001:0000B18C  7616 0001:0000B18E  7621 0001:0000B190
  7622 0001:0000B192  8543 0001:0000B194  8545 0001:0000B1A2  8549 0001:0000B1A7
  8551 0001:0000B1AA  8553 0001:0000B1B7  8546 0001:0000B1B9  8556 0001:0000B1BD
  8558 0001:0000B1C7  8559 0001:0000B1CC  8560 0001:0000B1D1  8561 0001:0000B1D8
  8562 0001:0000B1DD  8556 0001:0000B1E0  8564 0001:0000B1E3  8565 0001:0000B1E5
  8567 0001:0000B1E8  8569 0001:0000B1F2  8570 0001:0000B1F4  8571 0001:0000B1F6
  8572 0001:0000B1F9  8567 0001:0000B1FC  8574 0001:0000B1FF  8578 0001:0000B204
  8580 0001:0000B207  8582 0001:0000B214  8575 0001:0000B216  8585 0001:0000B21A
  8586 0001:0000B21C  8587 0001:0000B21F  8598 0001:0000B224  8600 0001:0000B22B
  8612 0001:0000B22D  8618 0001:0000B236  8619 0001:0000B242  8621 0001:0000B24E
  8625 0001:0000B250  8635 0001:0000B259  8636 0001:0000B265  8639 0001:0000B271
  8642 0001:0000B273  8649 0001:0000B289  8650 0001:0000B295  8652 0001:0000B2A1
  8656 0001:0000B2A3  8657 0001:0000B2A5  8816 0001:0000B640  8882 0001:0000B649
  8883 0001:0000B653  8884 0001:0000B65D  8892 0001:0000B667  8900 0001:0000B671
  8901 0001:0000B67B  8905 0001:0000B685  8970 0001:0000B68C  8972 0001:0000B696
  8974 0001:0000B6A0  8982 0001:0000B6A7  8987 0001:0000B6A8  9021 0001:0000B6AF
  9027 0001:0000B6B9  9034 0001:0000B6C0  9039 0001:0000B6C4  9043 0001:0000B6CD
  9046 0001:0000B6D2  9101 0001:0000B6DB  9105 0001:0000B6E0  9133 0001:0000B6E4
  9136 0001:0000B702

Line numbers for FastMM4(..\FastMM4.pas) segment .itext

  9107 0002:000000C4  9121 0002:000000CD  9126 0002:000000D6  9131 0002:000000DB

Line numbers for JclResources(JclResources.pas) segment .text

  2049 0001:0003AC80  2052 0001:0003AC92

Line numbers for JclResources(JclResources.pas) segment .itext

  2045 0002:000002F4  2046 0002:000002FD  2048 0002:0000030C

Line numbers for JclBase(JclBase.pas) segment .text

   572 0001:0003B024   573 0001:0003B027   574 0001:0003B02C   575 0001:0003B038
   577 0001:0003B044   578 0001:0003B05B   604 0001:0003B060   607 0001:0003B072

Line numbers for JclBase(JclBase.pas) segment .itext

   595 0002:00000310   597 0002:00000319   599 0002:0000031E   602 0002:0000032D

Line numbers for JclWin32(JclWin32.pas) segment .text

  7661 0001:0003BFD4  7662 0001:0003BFF7  7664 0001:0003C000  7665 0001:0003C00F
  7667 0001:0003C013  7668 0001:0003C033  7669 0001:0003C037  7671 0001:0003C05B
  7672 0001:0003C06C  7673 0001:0003C071  7675 0001:0003C09F  7681 0001:0003C0C4
  7682 0001:0003C0F3  7683 0001:0003C0FD  7684 0001:0003C112  7685 0001:0003C14E
  7688 0001:0003C1A0  7689 0001:0003C1D2  7690 0001:0003C1DC  7691 0001:0003C1F1
  7692 0001:0003C241  7695 0001:0003C29C  7696 0001:0003C2CE  7697 0001:0003C2D8
  7698 0001:0003C2ED  7699 0001:0003C336  7702 0001:0003C390  7703 0001:0003C3C2
  7704 0001:0003C3CC  7705 0001:0003C3E1  7706 0001:0003C42A  7779 0001:0003C484
  7780 0001:0003C487  7781 0001:0003C49B  7782 0001:0003C4B1  7793 0001:0003C514
  7794 0001:0003C517  7795 0001:0003C52B  7796 0001:0003C539  7807 0001:0003C5A8
  7808 0001:0003C5AB  7809 0001:0003C5BF  7810 0001:0003C5D9  7819 0001:0003C62C
  7820 0001:0003C62F  7821 0001:0003C643  7822 0001:0003C64D  7845 0001:0003C6A4
  7846 0001:0003C6A7  7847 0001:0003C6BB  7848 0001:0003C6D3  7857 0001:0003C740
  7858 0001:0003C743  7859 0001:0003C757  7860 0001:0003C769  7871 0001:0003C7C8
  7872 0001:0003C7CB  7873 0001:0003C7DF  7874 0001:0003C7F5  8346 0001:0003C84C
  8349 0001:0003C854  8746 0001:0003C85C  8747 0001:0003C862  8748 0001:0003C876
  8752 0001:0003C884  8753 0001:0003C889  8962 0001:0003C88C  8963 0001:0003C88F
  8964 0001:0003C8A3  8965 0001:0003C8B1  9016 0001:0003C920  9019 0001:0003C932

Line numbers for JclWin32(JclWin32.pas) segment .itext

  9012 0002:00000330  9013 0002:00000339  9015 0002:00000348

Line numbers for JclLogic(JclLogic.pas) segment .text

  2405 0001:0003CAD0  2408 0001:0003CAD4  2409 0001:0003CAD6  2424 0001:0003CAD8
  2427 0001:0003CAEA

Line numbers for JclLogic(JclLogic.pas) segment .itext

  2420 0002:0000034C  2421 0002:00000355  2423 0002:00000364

Line numbers for JclStringConversions(JclStringConversions.pas) segment .text

   312 0001:0003CE7C   313 0001:0003CE8E   314 0001:0003CE9D   389 0001:0003CEB8
   391 0001:0003CEB9   392 0001:0003CEC3   396 0001:0003CEC5   431 0001:0003CEC8
   432 0001:0003CEEB   433 0001:0003CF13   435 0001:0003CF15   437 0001:0003CF26
   439 0001:0003CF33   442 0001:0003CF82   446 0001:0003CF89   448 0001:0003CF8D
   449 0001:0003CF96   451 0001:0003CFA6   452 0001:0003CFB7   455 0001:0003CFBF
   458 0001:0003CFD3   463 0001:0003CFDA   465 0001:0003CFE1   466 0001:0003CFEA
   468 0001:0003CFFA   469 0001:0003D00E   470 0001:0003D018   472 0001:0003D028
   473 0001:0003D02E   476 0001:0003D036   479 0001:0003D04A   482 0001:0003D05E
   487 0001:0003D065   489 0001:0003D072   490 0001:0003D07B   492 0001:0003D08F
   493 0001:0003D0A3   494 0001:0003D0AD   496 0001:0003D0BD   497 0001:0003D0C6
   498 0001:0003D0D0   500 0001:0003D0E0   501 0001:0003D0E6   504 0001:0003D0EE
   507 0001:0003D102   510 0001:0003D116   513 0001:0003D12A   518 0001:0003D131
   520 0001:0003D13E   521 0001:0003D147   523 0001:0003D15B   524 0001:0003D16F
   525 0001:0003D179   527 0001:0003D189   528 0001:0003D192   529 0001:0003D19C
   531 0001:0003D1AC   532 0001:0003D1B5   533 0001:0003D1BF   535 0001:0003D1CF
   536 0001:0003D1D5   539 0001:0003D1DD   542 0001:0003D1F1   545 0001:0003D205
   548 0001:0003D219   551 0001:0003D22D   556 0001:0003D234   558 0001:0003D241
   559 0001:0003D24A   561 0001:0003D25E   562 0001:0003D272   563 0001:0003D27C
   565 0001:0003D290   566 0001:0003D299   567 0001:0003D2A3   569 0001:0003D2B3
   570 0001:0003D2BC   571 0001:0003D2C6   573 0001:0003D2D6   574 0001:0003D2DF
   575 0001:0003D2E9   577 0001:0003D2F9   578 0001:0003D2FF   581 0001:0003D304
   584 0001:0003D315   587 0001:0003D326   590 0001:0003D337   593 0001:0003D348
   596 0001:0003D359   599 0001:0003D35D   601 0001:0003D36C   602 0001:0003D370
   607 0001:0003D381   608 0001:0003D386   610 0001:0003D392  1396 0001:0003D3B8
  1397 0001:0003D3C2  1399 0001:0003D3E7  1402 0001:0003D3EC  1403 0001:0003D3FE
  1405 0001:0003D408  1406 0001:0003D417  1410 0001:0003D41E  1413 0001:0003D426
  1414 0001:0003D438  1416 0001:0003D442  1417 0001:0003D457  1418 0001:0003D46B
  1422 0001:0003D473  1425 0001:0003D47B  1426 0001:0003D490  1428 0001:0003D49A
  1429 0001:0003D4AF  1430 0001:0003D4C6  1431 0001:0003D4DB  1435 0001:0003D4E3
  1438 0001:0003D4EF  1439 0001:0003D506  1441 0001:0003D510  1442 0001:0003D525
  1443 0001:0003D53C  1444 0001:0003D554  1445 0001:0003D569  1449 0001:0003D571
  1452 0001:0003D57D  1453 0001:0003D594  1455 0001:0003D59E  1456 0001:0003D5B3
  1457 0001:0003D5CA  1458 0001:0003D5E2  1459 0001:0003D5FA  1460 0001:0003D60F
  1464 0001:0003D617  1467 0001:0003D625  1468 0001:0003D63C  1470 0001:0003D646
  1471 0001:0003D65B  1472 0001:0003D672  1473 0001:0003D68A  1474 0001:0003D6A2
  1475 0001:0003D6BA  1476 0001:0003D6CF  1483 0001:0003D6D4  1484 0001:0003D6E9
  1486 0001:0003D6EF  1487 0001:0003D70A  1488 0001:0003D727  1489 0001:0003D743
  1496 0001:0003D746  1747 0001:0003D750  1748 0001:0003D752  1750 0001:0003D75F
  1752 0001:0003D770  1754 0001:0003D77A  1758 0001:0003D795  1760 0001:0003D799
  1761 0001:0003D79F  1763 0001:0003D7AD  1764 0001:0003D7CE  1767 0001:0003D7D3
  1770 0001:0003D7E3  1773 0001:0003D7F3  1776 0001:0003D803  1782 0001:0003D807
  1783 0001:0003D80C  1785 0001:0003D817  2319 0001:0003D820  2320 0001:0003D827
  2322 0001:0003D83A  2325 0001:0003D844  2326 0001:0003D853  2328 0001:0003D85B
  2329 0001:0003D864  2333 0001:0003D868  2336 0001:0003D872  2337 0001:0003D881
  2339 0001:0003D885  2340 0001:0003D88B  2341 0001:0003D8A3  2342 0001:0003D8B7
  2349 0001:0003D8BC  2350 0001:0003D8CB  2352 0001:0003D8CF  2353 0001:0003D8E1
  2360 0001:0003D8E3  3413 0001:0003D8EC  3414 0001:0003D910  3415 0001:0003D916
  3418 0001:0003D922  3419 0001:0003D94C  3421 0001:0003D955  3422 0001:0003D95C
  3423 0001:0003D963  3425 0001:0003D968  3426 0001:0003D975  3427 0001:0003D97B
  3429 0001:0003D98C  3423 0001:0003D998  3431 0001:0003D99D  3433 0001:0003D9A8
  3439 0001:0003D9CC  3440 0001:0003D9FC  3441 0001:0003D9FE  3442 0001:0003DA04
  3445 0001:0003DA11  3446 0001:0003DA3B  3448 0001:0003DA45  3449 0001:0003DA4C
  3452 0001:0003DA55  3453 0001:0003DA62  3454 0001:0003DA68  3456 0001:0003DA77
  3450 0001:0003DA79  3458 0001:0003DA84  3459 0001:0003DA88  3461 0001:0003DA96
  3463 0001:0003DA9E  3495 0001:0003DAC4  3496 0001:0003DADD  3497 0001:0003DAE1
  3498 0001:0003DAEC  3501 0001:0003DAF6  3502 0001:0003DB05  3504 0001:0003DB12
  3505 0001:0003DB19  3508 0001:0003DB22  3509 0001:0003DB2E  3510 0001:0003DB34
  3512 0001:0003DB43  3506 0001:0003DB47  3514 0001:0003DB52  3515 0001:0003DB58
  3517 0001:0003DB68  3519 0001:0003DB70  3882 0001:0003DB7C  3885 0001:0003DB8E

Line numbers for JclStringConversions(JclStringConversions.pas) segment .itext

  3878 0002:0000037C  3879 0002:00000385  3881 0002:00000394

Line numbers for JclCharsets(JclCharsets.pas) segment .text

   589 0001:00040504   592 0001:00040527

Line numbers for JclCharsets(JclCharsets.pas) segment .itext

   585 0002:00000398   586 0002:000003A1   588 0002:000003B0

Line numbers for Jcl8087(Jcl8087.pas) segment .text

   336 0001:000406F0   339 0001:00040702

Line numbers for Jcl8087(Jcl8087.pas) segment .itext

   332 0002:000003B4   333 0002:000003BD   335 0002:000003CC

Line numbers for JclMath(JclMath.pas) segment .text

  4785 0001:000408E0  4788 0001:00040903

Line numbers for JclMath(JclMath.pas) segment .itext

  4781 0002:000003D0  4782 0002:000003D9  4784 0002:000003E8

Line numbers for Snmp(Snmp.pas) segment .text

   923 0001:00041C30   932 0001:00041C34   941 0001:00041C38   943 0001:00041C45
   946 0001:00041C4F

Line numbers for Snmp(Snmp.pas) segment .itext

   934 0002:00000444   935 0002:0000044D   937 0002:00000452   940 0002:00000461

Line numbers for JclStrings(JclStrings.pas) segment .text

   654 0001:00042764   655 0001:0004276E   658 0001:00042778   659 0001:0004277D
   684 0001:0004278D   688 0001:00042793   655 0001:00042799   689 0001:0004279F
   694 0001:000427A4   695 0001:000427A7   697 0001:000427B0   700 0001:000427B7
   701 0001:000427BC   702 0001:000427C0   703 0001:000427CC   714 0001:000427D8
   715 0001:000427E3   717 0001:000427EA   718 0001:000427F5   720 0001:000427FB
   721 0001:000427FD   722 0001:00042805   723 0001:00042810   724 0001:00042817
   697 0001:0004281B   725 0001:00042820   727 0001:00042827   736 0001:0004282C
   737 0001:00042833   738 0001:00042858   740 0001:0004285C   741 0001:00042863
   742 0001:0004286A   744 0001:00042870   745 0001:00042880   742 0001:00042883
   748 0001:00042886   978 0001:0004288C   979 0001:00042895   980 0001:000428A5
  1029 0001:000428AC  1030 0001:000428E1  1031 0001:00042909  1032 0001:00042931
  1033 0001:00042953  1035 0001:00042968  1036 0001:00042973  1052 0001:000429A4
  1053 0001:000429D8  1054 0001:00042A00  1055 0001:00042A48  1057 0001:00042A55
  1058 0001:00042A63  1609 0001:00042A94  1610 0001:00042AC1  1611 0001:00042ACB
  1612 0001:00042AFC  1613 0001:00042B09  1611 0001:00042B1A  1614 0001:00042B1D
  1944 0001:00042B44  1945 0001:00042B4A  1946 0001:00042B53  1947 0001:00042B5A
  1969 0001:00042B60  1970 0001:00042B6A  2055 0001:00042B6C  2056 0001:00042B6E
  2057 0001:00042B8B  2059 0001:00042B94  2060 0001:00042B99  2061 0001:00042B9C
  2056 0001:00042B9D  2062 0001:00042BA0  2067 0001:00042BA4  2068 0001:00042BA7
  2069 0001:00042BD6  2071 0001:00042BDE  2072 0001:00042BE8  2073 0001:00042BEA
  2068 0001:00042BEB  2074 0001:00042BEE  2093 0001:00042BF0  2094 0001:00042BF3
  2095 0001:00042C20  2097 0001:00042C29  2098 0001:00042C31  2099 0001:00042C33
  2094 0001:00042C34  2100 0001:00042C37  2188 0001:00042C3C  2189 0001:00042C6F
  2191 0001:00042C77  2192 0001:00042C81  2194 0001:00042C8B  2197 0001:00042C92
  2198 0001:00042C9E  2200 0001:00042CA6  2201 0001:00042CAA  2204 0001:00042CB4
  2205 0001:00042CDC  2207 0001:00042D02  2208 0001:00042D0E  2211 0001:00042D18
  2212 0001:00042D1C  2214 0001:00042D20  2216 0001:00042D26  2218 0001:00042D35
  2219 0001:00042D5C  2220 0001:00042D83  2222 0001:00042D88  2223 0001:00042D92
  2225 0001:00042D97  2216 0001:00042D98  2229 0001:00042DA2  2231 0001:00042DB1
  2232 0001:00042DD8  2233 0001:00042DFF  2235 0001:00042E04  2236 0001:00042E0D
  2237 0001:00042E16  2239 0001:00042E1B  2240 0001:00042E25  2243 0001:00042E27
  2229 0001:00042E28  2245 0001:00042E2D  2248 0001:00042E2F  2253 0001:00042E5C
  2254 0001:00042E8B  2255 0001:00042E93  2258 0001:00042E97  2259 0001:00042EBC
  2260 0001:00042EE2  2261 0001:00042EE6  2262 0001:00042EEA  2264 0001:00042EFE
  2317 0001:00042F2C  2318 0001:00042F57  2320 0001:00042F61  2321 0001:00042FA8
  2322 0001:00042FAC  2324 0001:00042FB0  2327 0001:00042FB8  2328 0001:00042FBA
  2371 0001:00042FE8  2372 0001:00043003  2373 0001:00043026  2710 0001:00043050
  2711 0001:00043057  2712 0001:00043065  2713 0001:00043069  2715 0001:00043074
  2716 0001:00043080  2742 0001:00043084  2743 0001:0004308D  2744 0001:0004309C
  2747 0001:000430A0  2748 0001:000430AC  2749 0001:000430BB  2818 0001:000430C4
  2820 0001:000430D2  2829 0001:000430D4  2832 0001:000430E8  2834 0001:000430EB
  2836 0001:000430F9  2843 0001:000430FC  2845 0001:0004310A  2873 0001:0004310C
  2874 0001:0004311D  2890 0001:00043120  2892 0001:0004312E  2896 0001:00043130
  2905 0001:000431E3  2907 0001:000431E6  2909 0001:000431E8  2913 0001:000431EC
  2920 0001:000431FB  2922 0001:000431FE  2924 0001:00043200  3040 0001:00043204
  3042 0001:0004320F  3070 0001:00043210  3071 0001:00043234  3073 0001:00043266
  3074 0001:00043295  3075 0001:000432B9  3073 0001:000432BA  3077 0001:000432BD
  3078 0001:000432BF  3081 0001:000432E4  3082 0001:00043308  3084 0001:00043336
  3085 0001:00043363  3086 0001:00043387  3084 0001:00043388  3088 0001:0004338B
  3089 0001:0004338D  3287 0001:000433B4  3288 0001:000433EC  3289 0001:00043406
  3290 0001:0004340E  3291 0001:0004341C  3292 0001:00043424  3293 0001:0004344C
  3294 0001:00043459  3296 0001:0004345D  3297 0001:0004346B  3298 0001:00043476
  3299 0001:00043481  3300 0001:00043492  3294 0001:0004349F  3302 0001:000434A3
  3303 0001:000434A9  3305 0001:000434C1  3307 0001:000434D1  3342 0001:00043600
  3343 0001:00043633  3344 0001:0004363C  3346 0001:0004364F  3349 0001:00043668
  3350 0001:0004367F  3352 0001:00043689  3344 0001:0004368A  3354 0001:0004368F
  3356 0001:0004369B  3357 0001:000436C3  3359 0001:000436E1  5376 0001:00043744
  5379 0001:00043767

Line numbers for JclStrings(JclStrings.pas) segment .itext

  5365 0002:00000464  5367 0002:0000046D  5368 0002:00000472  5371 0002:00000477
  5375 0002:00000486

Line numbers for JclRegistry(JclRegistry.pas) segment .text

  2138 0001:00043CFC  2141 0001:00043D1F

Line numbers for JclRegistry(JclRegistry.pas) segment .itext

  2134 0002:00000488  2135 0002:0000049B  2137 0002:000004AA

Line numbers for JclIniFiles(JclIniFiles.pas) segment .text

   188 0001:0004406C   191 0001:0004407E

Line numbers for JclIniFiles(JclIniFiles.pas) segment .itext

   184 0002:00000914   185 0002:0000091D   187 0002:0000092C

Line numbers for JclSysInfo(JclSysInfo.pas) segment .text

  1482 0001:00044220  1483 0001:00044237  1484 0001:00044244  1485 0001:0004425E
  1486 0001:00044268  1487 0001:00044286  1489 0001:0004428A  1490 0001:00044292
  1492 0001:0004429C  1513 0001:000442C0  1514 0001:000442D1  1515 0001:000442E3
  1520 0001:000442E8  1521 0001:000442FE  1522 0001:00044311  1523 0001:0004431A
  1524 0001:00044332  1525 0001:00044338  1526 0001:0004433E  1529 0001:00044349
  1530 0001:00044352  1531 0001:00044358  1533 0001:0004435F  1761 0001:0004436C
  1762 0001:00044370  1763 0001:00044379  1764 0001:00044384  1766 0001:00044388
  1767 0001:00044391  1768 0001:0004439F  1770 0001:000443A6  2682 0001:000443D8
  2683 0001:000443FD  2687 0001:00044405  2690 0001:0004441A  2691 0001:00044423
  2693 0001:00044438  2694 0001:00044450  2696 0001:0004447D  2704 0001:000444A4
  2705 0001:000444B0  2706 0001:000444B2  2707 0001:000444B4  2708 0001:000444C1
  2709 0001:000444D3  2710 0001:000444DA  2712 0001:000444DF  2717 0001:000444E4
  2719 0001:000444ED  2720 0001:000444FD  2722 0001:00044500  2723 0001:00044507
  2710 0001:00044519  2725 0001:0004451E  2733 0001:0004452C  2734 0001:00044547
  2735 0001:0004454B  2736 0001:00044561  2737 0001:0004456B  2738 0001:00044579
  2739 0001:0004457E  2740 0001:00044597  2742 0001:0004459D  2743 0001:000445A3
  2744 0001:000445BA  2745 0001:000445D0  2746 0001:000445D8  2745 0001:000445EC
  2749 0001:000445F1  2751 0001:0004460E  2753 0001:0004461F  2762 0001:0004464C
  2763 0001:0004466C  2764 0001:0004467D  2765 0001:00044685  2766 0001:0004468F
  2767 0001:0004469D  2768 0001:000446AD  2769 0001:000446B7  2772 0001:000446CD
  2773 0001:000446D6  2775 0001:000446EB  2776 0001:00044718  2770 0001:0004472C
  2779 0001:0004473D  2781 0001:0004474E  2783 0001:00044778  2784 0001:00044787
  2785 0001:0004478F  2786 0001:0004479D  2787 0001:000447A6  2789 0001:000447B2
  2791 0001:000447C9  2793 0001:000447D9  2817 0001:000447E4  2818 0001:000447E7
  2819 0001:000447ED  2820 0001:000447FA  2821 0001:00044804  2823 0001:00044808
  2824 0001:0004480C  2830 0001:00044810  2831 0001:00044812  2833 0001:00044816
  2834 0001:0004481E  2836 0001:00044822  2838 0001:00044827  2839 0001:00044829
  2841 0001:0004482B  2834 0001:0004482D  2844 0001:00044831  3149 0001:00044834
  3150 0001:00044851  3151 0001:00044853  3152 0001:00044862  3154 0001:00044878
  3156 0001:00044890  3157 0001:000448AE  3159 0001:000448B5  3164 0001:000448BC
  3165 0001:000448C8  3167 0001:000448CF  3168 0001:000448ED  3170 0001:000448F4
  3172 0001:000448FB  3175 0001:00044902  3177 0001:00044920  3179 0001:00044939
  3181 0001:00044940  3183 0001:00044947  3186 0001:0004494E  3188 0001:00044955
  3190 0001:0004496B  3192 0001:00044972  3195 0001:00044979  3196 0001:00044983
  3197 0001:00044988  3198 0001:00044990  3199 0001:0004499B  3201 0001:000449A2
  3203 0001:000449BF  3205 0001:000449C3  3209 0001:000449C7  3212 0001:000449D7
  3213 0001:000449E1  3214 0001:000449F7  3216 0001:000449FB  3220 0001:000449FF
  3221 0001:00044A09  3222 0001:00044A1F  3224 0001:00044A23  3229 0001:00044A25
  3810 0001:00044A7C  3811 0001:00044A81  3812 0001:00044A83  3814 0001:00044A8F
  3816 0001:00044A93  3817 0001:00044A9E  3819 0001:00044AA2  3820 0001:00044AA5
  3823 0001:00044AA9  3826 0001:00044AB1  3827 0001:00044AB7  5484 0001:00044B04
  5486 0001:00044B0D  5487 0001:00044B18  5488 0001:00044B1F  5490 0001:00044B26
  5613 0001:00044B28  5616 0001:00044B41  5617 0001:00044B4E  5618 0001:00044B57
  5619 0001:00044B5F  5620 0001:00044B67  5624 0001:00044B6F  5626 0001:00044B7E
  5627 0001:00044B90  5628 0001:00044B95  5629 0001:00044BAD  5631 0001:00044BB7
  5633 0001:00044BBE  5637 0001:00044C27  5639 0001:00044C33  5641 0001:00044C3F
  5643 0001:00044C4B  5645 0001:00044C57  5648 0001:00044C63  5649 0001:00044C6A
  5653 0001:00044C73  5654 0001:00044C7A  5658 0001:00044C83  5659 0001:00044C8A
  5660 0001:00044C91  5663 0001:00044C9A  5665 0001:00044CA3  5667 0001:00044CAC
  5669 0001:00044CB5  5671 0001:00044CBE  5673 0001:00044CC7  5675 0001:00044CD0
  5677 0001:00044CD9  5679 0001:00044CE2  5681 0001:00044CEB  5683 0001:00044CF2
  5687 0001:00044D30  5688 0001:00044D35  5698 0001:00045210  5700 0001:00045222
  5704 0001:00045227

Line numbers for JclSysInfo(JclSysInfo.pas) segment .itext

  5690 0002:00000930  5691 0002:00000943  5693 0002:00000948  5696 0002:00000957

Line numbers for JclUnicode(JclUnicode.pas) segment .text

  7090 0001:00047BFC  7091 0001:00047C16  7092 0001:00047C27  7093 0001:00047C4A
  7161 0001:00047C70  7162 0001:00047C98  7163 0001:00047CA8  7164 0001:00047CB8
  7165 0001:00047CC4  7166 0001:00047CD0  7167 0001:00047CDA  7168 0001:00047CFD
  7169 0001:00047D20  7171 0001:00047D98  7177 0001:00047DC4  7178 0001:00047DD0
  7180 0001:00047E0F  7282 0001:00047E18  7284 0001:00047E29  7285 0001:00047E33
  7287 0001:00047E3E  7288 0001:00047E48  7293 0001:00047E4C  7294 0001:00047E5E
  7304 0001:00047E60  7306 0001:00047E87  7308 0001:00047E8C

Line numbers for JclUnicode(JclUnicode.pas) segment .itext

  7296 0002:00000958  7297 0002:00000972  7299 0002:00000977  7302 0002:00000986

Line numbers for JclWideStrings(JclWideStrings.pas) segment .text

  2316 0001:000480FC  2319 0001:0004810E

Line numbers for JclWideStrings(JclWideStrings.pas) segment .itext

  2312 0002:000009A0  2313 0002:000009A9  2315 0002:000009B8

Line numbers for JclShell(JclShell.pas) segment .text

  1605 0001:000482B4  1607 0001:000482C6  1609 0001:000482D0

Line numbers for JclShell(JclShell.pas) segment .itext

  1596 0002:000009BC  1600 0002:000009C5  1603 0002:000009D4

Line numbers for JclSecurity(JclSecurity.pas) segment .text

   841 0001:0004847C   844 0001:0004848E

Line numbers for JclSecurity(JclSecurity.pas) segment .itext

   837 0002:000009D8   838 0002:000009E1   840 0002:000009F0

Line numbers for JclDateTime(JclDateTime.pas) segment .text

   339 0001:000486DC   340 0001:000486E0   341 0001:000486F7   765 0001:000486F8
   766 0001:000486FD   767 0001:0004870B   768 0001:00048718   775 0001:00048724
   776 0001:0004872A   777 0001:00048730   778 0001:00048736   779 0001:00048746
   781 0001:00048753  1445 0001:0004875C  1448 0001:0004876E

Line numbers for JclDateTime(JclDateTime.pas) segment .itext

  1441 0002:000009F4  1442 0002:000009FD  1444 0002:00000A0C

Line numbers for JclFileUtils(JclFileUtils.pas) segment .text

  1419 0001:00049888  1420 0001:000498A8  1421 0001:000498B1  1422 0001:000498C1
  1423 0001:000498C6  1424 0001:000498CB  1426 0001:000498D5  1427 0001:000498DA
  1431 0001:000498E1  1432 0001:000498E6  1434 0001:000498EB  1435 0001:00049900
  1437 0001:00049906  1438 0001:0004990D  1440 0001:00049924  1441 0001:00049936
  1443 0001:0004993A  1444 0001:00049941  1446 0001:00049958  1447 0001:00049963
  1449 0001:00049968  1450 0001:0004996E  1451 0001:00049975  1453 0001:0004998C
  1454 0001:00049997  1457 0001:000499BC  1458 0001:000499C7  1459 0001:000499CE
  1460 0001:000499DA  1463 0001:000499E8  1464 0001:000499EB  1466 0001:000499F2
  1467 0001:000499F8  1469 0001:00049A03  1471 0001:00049A0A  1472 0001:00049A10
  1474 0001:00049A15  1476 0001:00049A1D  1477 0001:00049A23  1479 0001:00049A2A
  1482 0001:00049A2C  1483 0001:00049A36  1484 0001:00049A38  1486 0001:00049A68
  1487 0001:00049A7D  1488 0001:00049A9C  1490 0001:00049A9E  2210 0001:00049AA8
  2211 0001:00049AC9  2212 0001:00049AD3  2213 0001:00049B2F  2214 0001:00049B3E
  2417 0001:00049B70  2418 0001:00049B89  2419 0001:00049B9D  2950 0001:00049BC0
  2951 0001:00049BE1  2952 0001:00049BF0  2953 0001:00049C22  2955 0001:00049C35
  2956 0001:00049C3F  3510 0001:00049C78  3511 0001:00049C7B  3515 0001:00049C7F
  3516 0001:00049C85  3523 0001:00049C96  3524 0001:00049C98  4171 0001:00049C9C
  4172 0001:00049CA3  4173 0001:00049CA8  4175 0001:00049CB1  4184 0001:00049CBD
  4185 0001:00049CC6  4760 0001:00049EB0  4761 0001:00049EBF  4762 0001:00049EC8
  4764 0001:00049ED0  4765 0001:00049EDA  4766 0001:00049EEC  4768 0001:00049EF4
  4769 0001:00049EFD  4770 0001:00049F19  4772 0001:00049F26  4773 0001:00049F33
  4775 0001:00049F3D  4777 0001:00049F4B  4781 0001:00049F59  4783 0001:00049F5D
  4784 0001:00049F6E  4788 0001:00049F82  4791 0001:00049FD3  4795 0001:00049FE4
  4799 0001:0004A01B  4800 0001:0004A028  4802 0001:0004A032  4804 0001:0004A040
  4808 0001:0004A04E  4810 0001:0004A052  4811 0001:0004A063  4815 0001:0004A077
  4818 0001:0004A0C8  4822 0001:0004A0D9  4826 0001:0004A10D  4829 0001:0004A13F
  4830 0001:0004A16C  4836 0001:0004A2C4  4837 0001:0004A2D0  4838 0001:0004A2FC
  4882 0001:0004A320  4883 0001:0004A341  4884 0001:0004A343  4885 0001:0004A348
  4886 0001:0004A35B  4888 0001:0004A35F  4889 0001:0004A369  4890 0001:0004A36E
  4891 0001:0004A373  4895 0001:0004A3AD  4896 0001:0004A3AF  4899 0001:0004A3C0
  4916 0001:0004A3EC  4917 0001:0004A409  4918 0001:0004A415  4919 0001:0004A428
  4920 0001:0004A42F  4926 0001:0004A450  4927 0001:0004A46C  4928 0001:0004A477
  4929 0001:0004A49B  4930 0001:0004A4A0  4931 0001:0004A4B3  4932 0001:0004A4B7
  4933 0001:0004A4CE  4934 0001:0004A4DA  4935 0001:0004A4FA  4936 0001:0004A501
  4944 0001:0004A524  4945 0001:0004A54C  4946 0001:0004A562  4949 0001:0004A59C
  4950 0001:0004A5CA  4951 0001:0004A5CE  4953 0001:0004A5E6  4954 0001:0004A60A
  4958 0001:0004A648  4959 0001:0004A653  4960 0001:0004A663  4961 0001:0004A673
  4962 0001:0004A67F  4967 0001:0004A690  4968 0001:0004A694  4969 0001:0004A6A7
  4972 0001:0004A6AC  4973 0001:0004A6B2  4974 0001:0004A6C1  4975 0001:0004A6D8
  4980 0001:0004A6DC  4981 0001:0004A6FA  4982 0001:0004A706  4983 0001:0004A719
  4984 0001:0004A728  4982 0001:0004A750  4985 0001:0004A755  4996 0001:0004A77C
  4998 0001:0004A77E  4997 0001:0004A780  4999 0001:0004A785  5005 0001:0004A788
  5006 0001:0004A791  5007 0001:0004A79E  5008 0001:0004A7A6  5009 0001:0004A7B2
  5012 0001:0004A7BC  5014 0001:0004A7CA  5015 0001:0004A7D6  5017 0001:0004A7E3
  5012 0001:0004A7E5  5019 0001:0004A7EF  5021 0001:0004A7F4  5022 0001:0004A7F7
  5023 0001:0004A803  5024 0001:0004A806  5026 0001:0004A80F  5027 0001:0004A81B
  5028 0001:0004A81E  5029 0001:0004A820  5030 0001:0004A82B  5034 0001:0004A83A
  5035 0001:0004A843  5036 0001:0004A850  5038 0001:0004A85B  5039 0001:0004A862
  5040 0001:0004A870  5041 0001:0004A878  5048 0001:0004A880  5050 0001:0004A88C
  5051 0001:0004A89A  5052 0001:0004A89E  5053 0001:0004A8AC  5054 0001:0004A8B0
  5056 0001:0004A8B7  5057 0001:0004A8E1  5059 0001:0004A8E4  5055 0001:0004A8F2
  5060 0001:0004A902  5068 0001:0004A91C  5069 0001:0004A94D  5070 0001:0004A952
  5073 0001:0004A959  5074 0001:0004A963  5075 0001:0004A96D  5077 0001:0004A9D1
  5078 0001:0004A9D8  5080 0001:0004A9DD  5081 0001:0004A9E4  5082 0001:0004AA1B
  5083 0001:0004AA52  5084 0001:0004AA72  5085 0001:0004AA81  5088 0001:0004AA9A
  5089 0001:0004AAA4  5091 0001:0004AAB8  5092 0001:0004AAC6  5095 0001:0004AAF9
  5096 0001:0004AB0C  5098 0001:0004AB18  5101 0001:0004AB24  5102 0001:0004AB2E
  5104 0001:0004AB3A  5106 0001:0004AB43  5107 0001:0004AB54  5110 0001:0004AB5E
  5112 0001:0004AB6A  5113 0001:0004AB71  5115 0001:0004AB73  5116 0001:0004AB82
  5117 0001:0004AB89  5086 0001:0004ABC9  5119 0001:0004ABDD  5071 0001:0004ABDE
  5121 0001:0004ABF2  5126 0001:0004AC6C  5127 0001:0004AC70  5128 0001:0004AC7A
  5130 0001:0004AC8E  5131 0001:0004ACB5  5133 0001:0004ACCB  5134 0001:0004ACDF
  5135 0001:0004ACE6  5131 0001:0004ACE7  5137 0001:0004ACEA  5139 0001:0004AD14
  5140 0001:0004AD30  5141 0001:0004AD42  5142 0001:0004AD54  5143 0001:0004AD5D
  5144 0001:0004AD7B  5145 0001:0004AD8E  5146 0001:0004AD92  5147 0001:0004AD99
  5148 0001:0004ADA6  5150 0001:0004ADC8  5151 0001:0004ADD1  5152 0001:0004ADDB
  5153 0001:0004ADE2  5156 0001:0004ADEC  5157 0001:0004ADF3  5158 0001:0004ADFA
  5159 0001:0004AE06  5160 0001:0004AE17  5162 0001:0004AE24  5163 0001:0004AE35
  5154 0001:0004AE3C  5167 0001:0004AE4A  5168 0001:0004AE52  5170 0001:0004AE5A
  5171 0001:0004AE60  5172 0001:0004AE77  5177 0001:0004B01C  5178 0001:0004B020
  5179 0001:0004B02A  5180 0001:0004B033  5181 0001:0004B03B  5182 0001:0004B03F
  5183 0001:0004B047  5184 0001:0004B04B  5185 0001:0004B053  5186 0001:0004B057
  5187 0001:0004B05F  5188 0001:0004B063  5189 0001:0004B06B  5190 0001:0004B06F
  5191 0001:0004B077  5192 0001:0004B07B  5195 0001:0004B084  5196 0001:0004B08E
  5199 0001:0004B0E3  5202 0001:0004B110  5203 0001:0004B11A  5206 0001:0004B16F
  5211 0001:0004B19C  5212 0001:0004B1A8  5214 0001:0004B1AC  5215 0001:0004B1B6
  5217 0001:0004B1B9  5219 0001:0004B1C7  5222 0001:0004B1EB  5223 0001:0004B202
  5227 0001:0004B208  5228 0001:0004B20E  5232 0001:0004B210  5233 0001:0004B216
  5237 0001:0004B218  5238 0001:0004B21E  5243 0001:0004B220  5244 0001:0004B23E
  5245 0001:0004B24C  5246 0001:0004B25F  5247 0001:0004B272  5248 0001:0004B29F
  5249 0001:0004B2B3  5252 0001:0004B2E4  5253 0001:0004B301  5254 0001:0004B30F
  5255 0001:0004B322  5256 0001:0004B33B  5257 0001:0004B34F  5262 0001:0004B388
  5263 0001:0004B3A6  5264 0001:0004B3B4  5265 0001:0004B3C7  5266 0001:0004B3DA
  5267 0001:0004B3E9  5268 0001:0004B404  5269 0001:0004B418  5274 0001:0004B444
  5275 0001:0004B462  5276 0001:0004B470  5277 0001:0004B483  5278 0001:0004B496
  5279 0001:0004B4A6  5280 0001:0004B4B5  5281 0001:0004B4D0  5282 0001:0004B4E4
  5285 0001:0004B510  5286 0001:0004B512  5287 0001:0004B520  5291 0001:0004B524
  5292 0001:0004B527  5296 0001:0004B528  5297 0001:0004B530  5319 0001:0004B534
  5320 0001:0004B53C  5330 0001:0004B540  5331 0001:0004B55E  5332 0001:0004B56C
  5333 0001:0004B57F  5334 0001:0004B592  5335 0001:0004B5BF  5336 0001:0004B5D3
  5339 0001:0004B604  5340 0001:0004B621  5341 0001:0004B62F  5342 0001:0004B642
  5343 0001:0004B65B  5344 0001:0004B66F  5349 0001:0004B6A8  5350 0001:0004B6C6
  5351 0001:0004B6D4  5352 0001:0004B6E7  5353 0001:0004B6FA  5354 0001:0004B709
  5355 0001:0004B724  5356 0001:0004B738  5361 0001:0004B764  5362 0001:0004B782
  5363 0001:0004B790  5364 0001:0004B7A3  5365 0001:0004B7B6  5366 0001:0004B7C6
  5367 0001:0004B7D5  5368 0001:0004B7F0  5369 0001:0004B804  5372 0001:0004B830
  5373 0001:0004B839  5374 0001:0004B84E  5377 0001:0004B854  5378 0001:0004B85A
  5379 0001:0004B863  5381 0001:0004B868  5382 0001:0004B86B  5384 0001:0004B872
  5390 0001:0004B878  5391 0001:0004B882  5392 0001:0004B8B1  5393 0001:0004B8B8
  5395 0001:0004B8C9  5396 0001:0004B8CF  5398 0001:0004B8D9  5397 0001:0004B8DA
  5399 0001:0004B8E6  5401 0001:0004B8EA  5402 0001:0004B8EF  5404 0001:0004B8F1
  5393 0001:0004B8F2  5405 0001:0004B8F5  5408 0001:0004B900  5409 0001:0004B909
  5411 0001:0004B939  5416 0001:0004B960  5417 0001:0004B966  5418 0001:0004B972
  5419 0001:0004B988  5420 0001:0004B990  6933 0001:0004B994  6936 0001:0004B9B7

Line numbers for JclFileUtils(JclFileUtils.pas) segment .itext

  6929 0002:00000A10  6930 0002:00000A19  6932 0002:00000A28

Line numbers for JclConsole(JclConsole.pas) segment .text

  1519 0001:0004BB8C  1522 0001:0004BB9E

Line numbers for JclConsole(JclConsole.pas) segment .itext

  1515 0002:00000A2C  1516 0002:00000A35  1518 0002:00000A44

Line numbers for JclSysUtils(JclSysUtils.pas) segment .text

   818 0001:0004C178   820 0001:0004C17C   821 0001:0004C17F   823 0001:0004C186
  1175 0001:0004C234  1176 0001:0004C239  1178 0001:0004C24B  1180 0001:0004C259
  1188 0001:0004C267  1189 0001:0004C26B  1191 0001:0004C272  1192 0001:0004C286
  1206 0001:0004C28C  1207 0001:0004C2AF  1208 0001:0004C2B4  1210 0001:0004C2B8
  1211 0001:0004C2DC  1214 0001:0004C300  1218 0001:0004C308  1219 0001:0004C30E
  1221 0001:0004C312  1223 0001:0004C320  1224 0001:0004C323  1225 0001:0004C328
  1226 0001:0004C32F  1228 0001:0004C334  1219 0001:0004C336  1232 0001:0004C33A
  1233 0001:0004C350  1235 0001:0004C356  1236 0001:0004C35C  1238 0001:0004C380
  1239 0001:0004C385  1240 0001:0004C395  1242 0001:0004C39A  1246 0001:0004C3B7
  1248 0001:0004C3BE  1249 0001:0004C3CA  1252 0001:0004C3D3  1253 0001:0004C3D9
  1257 0001:0004C3DE  1258 0001:0004C3F7  1260 0001:0004C3FB  1261 0001:0004C409
  1263 0001:0004C41D  1264 0001:0004C426  1269 0001:0004C430  1270 0001:0004C442
  1271 0001:0004C44C  1272 0001:0004C452  1273 0001:0004C457  1275 0001:0004C45E
  1276 0001:0004C465  1277 0001:0004C46B  1295 0001:0004C4A4  1296 0001:0004C4C2
  1298 0001:0004C4C7  1300 0001:0004C4CB  1302 0001:0004C4D3  1303 0001:0004C4D9
  1304 0001:0004C4DB  1306 0001:0004C4DF  1308 0001:0004C4E6  1310 0001:0004C4EC
  1311 0001:0004C4EF  1312 0001:0004C4F3  1313 0001:0004C4F7  1316 0001:0004C4F9
  1317 0001:0004C502  1319 0001:0004C50B  1320 0001:0004C50F  1322 0001:0004C518
  1324 0001:0004C51C  1325 0001:0004C529  1326 0001:0004C52D  1327 0001:0004C531
  1329 0001:0004C533  1330 0001:0004C535  1304 0001:0004C537  1334 0001:0004C53D
  1335 0001:0004C541  1352 0001:0004C56C  1353 0001:0004C571  1437 0001:0004C574
  1438 0001:0004C577  1439 0001:0004C58A  1445 0001:0004C58C  1447 0001:0004C59B
  1448 0001:0004C59E  1449 0001:0004C5A1  1452 0001:0004C5B8  1451 0001:0004C5B9
  1454 0001:0004C5D6  1453 0001:0004C5D7  1455 0001:0004C5F2  1457 0001:0004C5FA
  1458 0001:0004C608  1459 0001:0004C617  1462 0001:0004C62A  1463 0001:0004C62D
  1464 0001:0004C635  1468 0001:0004C63C  1469 0001:0004C63F  1470 0001:0004C648
  1474 0001:0004C650  1475 0001:0004C652  1476 0001:0004C659  1479 0001:0004C660
  1480 0001:0004C673  1481 0001:0004C683  1483 0001:0004C697  1484 0001:0004C69C
  1486 0001:0004C6A4  1487 0001:0004C6AC  1488 0001:0004C6AF  1489 0001:0004C6B0
  1491 0001:0004C6B1  1492 0001:0004C6B9  1493 0001:0004C6BE  1494 0001:0004C6CD
  1495 0001:0004C6D0  1496 0001:0004C6D9  1498 0001:0004C6E0  1499 0001:0004C703
  1501 0001:0004C709  1502 0001:0004C723  1504 0001:0004C735  1511 0001:0004C760
  1512 0001:0004C772  1513 0001:0004C779  1515 0001:0004C77F  1516 0001:0004C781
  1517 0001:0004C78A  1518 0001:0004C78E  1520 0001:0004C792  1521 0001:0004C797
  1522 0001:0004C7A8  1523 0001:0004C7AE  1526 0001:0004C7B3  1527 0001:0004C7B6
  1529 0001:0004C7BC  1530 0001:0004C7C0  1518 0001:0004C7C2  1534 0001:0004C7C6
  1535 0001:0004C7CC  1537 0001:0004C7D1  1538 0001:0004C7DB  1540 0001:0004C7DE
  1704 0001:0004C7EC  1706 0001:0004C809  1708 0001:0004C828  1709 0001:0004C831
  1710 0001:0004C83C  1714 0001:0004C964  1715 0001:0004C97B  2163 0001:0004C97C
  2165 0001:0004C984  2164 0001:0004C98D  2166 0001:0004C99E  2167 0001:0004C9A3
  3261 0001:0004C9D4  3262 0001:0004C9D7  3263 0001:0004C9DC  3264 0001:0004C9E4
  3265 0001:0004C9E8  3599 0001:0004C9EC  3600 0001:0004C9FE  3601 0001:0004CA07
  3602 0001:0004CA16  3605 0001:0004CA30  3606 0001:0004CA3B  3607 0001:0004CA43
  3608 0001:0004CA4F  3611 0001:0004CA60  3612 0001:0004CA66  3613 0001:0004CA6D
  3614 0001:0004CA6F  3617 0001:0004CA74  3618 0001:0004CA7A  3619 0001:0004CA82
  3620 0001:0004CA84  3623 0001:0004CA88  3624 0001:0004CA8F  3625 0001:0004CAA0
  3627 0001:0004CAA4  3628 0001:0004CAA9  4210 0001:0004CAB0  4217 0001:0004CAD3
  4218 0001:0004CADA  4221 0001:0004CAEC  4222 0001:0004CAF5  4223 0001:0004CB07

Line numbers for JclSysUtils(JclSysUtils.pas) segment .itext

  4202 0002:00000A48  4203 0002:00000A51  4205 0002:00000A58  4208 0002:00000A67

Line numbers for JclStreams(JclStreams.pas) segment .text

  3101 0001:0004CCD4  3104 0001:0004CCE6

Line numbers for JclStreams(JclStreams.pas) segment .itext

  3097 0002:00000A68  3098 0002:00000A71  3100 0002:00000A80

Line numbers for JclAnsiStrings(JclAnsiStrings.pas) segment .text

   564 0001:0004CE90   565 0001:0004CE9A   568 0001:0004CEA2   569 0001:0004CEA7
   594 0001:0004CEB7   598 0001:0004CEBD   565 0001:0004CEC2   599 0001:0004CEC7
   604 0001:0004CECC   605 0001:0004CECF   607 0001:0004CED8   610 0001:0004CEDF
   611 0001:0004CEE3   612 0001:0004CEE6   613 0001:0004CEF2   624 0001:0004CEFE
   625 0001:0004CF09   627 0001:0004CF10   628 0001:0004CF1B   630 0001:0004CF21
   631 0001:0004CF23   632 0001:0004CF2A   633 0001:0004CF34   634 0001:0004CF3A
   607 0001:0004CF3C   635 0001:0004CF40   637 0001:0004CF47  3074 0001:0004CF4C
  3075 0001:0004CF5A  3114 0001:0004CF5C  3115 0001:0004CF6A  4047 0001:0004CF6C
  4050 0001:0004CF7E

Line numbers for JclAnsiStrings(JclAnsiStrings.pas) segment .itext

  4040 0002:00000A84  4041 0002:00000A8D  4042 0002:00000A92  4044 0002:00000A97
  4046 0002:00000AA6

Line numbers for JclSynch(JclSynch.pas) segment .text

   425 0001:0004D8A4   429 0001:0004D8A5   442 0001:0004D8A9   755 0001:0004D8AC
   757 0001:0004D8CD   759 0001:0004D8D0   761 0001:0004D8D3   763 0001:0004D8D6
   765 0001:0004D8D9   767 0001:0004D8DC   769 0001:0004D8DE   772 0001:0004D8E0
   773 0001:0004D8F5   774 0001:0004D8FE   775 0001:0004D902   776 0001:0004D905
   777 0001:0004D90F   780 0001:0004D92C   781 0001:0004D937   782 0001:0004D940
   783 0001:0004D94C   789 0001:0004D95C   791 0001:0004D968   792 0001:0004D983
   795 0001:0004D98C   796 0001:0004D992   797 0001:0004D9A3   800 0001:0004D9A8
   801 0001:0004D9AE   802 0001:0004D9BD   806 0001:0004D9C0   807 0001:0004D9C8
   839 0001:0004D9CC   840 0001:0004D9DE   841 0001:0004D9E7   842 0001:0004D9F0
   845 0001:0004DA0C   846 0001:0004DA17   847 0001:0004DA20   848 0001:0004DA2C
   853 0001:0004DA3C   854 0001:0004DA40   855 0001:0004DA4E   858 0001:0004DA5D
   860 0001:0004DA64   861 0001:0004DA6B   865 0001:0004DA70   866 0001:0004DA79
   870 0001:0004DA7C   871 0001:0004DA85  1063 0001:0004DA88  1064 0001:0004DA8E
  1065 0001:0004DA9C  1068 0001:0004DAA0  1069 0001:0004DAC0  1070 0001:0004DAC9
  1071 0001:0004DAD3  1072 0001:0004DAEE  1073 0001:0004DAF2  1074 0001:0004DB09
  1075 0001:0004DB19  1078 0001:0004DB3C  1079 0001:0004DB5C  1080 0001:0004DB65
  1081 0001:0004DB6F  1082 0001:0004DB73  1083 0001:0004DB91  1084 0001:0004DB95
  1085 0001:0004DBAC  1088 0001:0004DBD0  1089 0001:0004DBD3  1090 0001:0004DBE2
  1762 0001:0004DBE4  1765 0001:0004DBF6

Line numbers for JclSynch(JclSynch.pas) segment .itext

  1758 0002:00000AA8  1759 0002:00000AB1  1761 0002:00000AC0

Line numbers for JclUnitVersioning(JclUnitVersioning.pas) segment .text

   182 0001:0004E7EC   183 0001:0004E819   184 0001:0004E81D   185 0001:0004E845
   187 0001:0004E86F   188 0001:0004E87A   189 0001:0004E8C2   187 0001:0004E8C3
   190 0001:0004E8C6   192 0001:0004E8CA   197 0001:0004E8F8   202 0001:0004E8FD
   207 0001:0004E900   208 0001:0004E915   209 0001:0004E91E   210 0001:0004E921
   215 0001:0004E93C   216 0001:0004E95B   218 0001:0004E972   220 0001:0004E982
   221 0001:0004E993   222 0001:0004E9B3   223 0001:0004E9CB   225 0001:0004E9D5
   226 0001:0004E9E3   227 0001:0004E9E5   222 0001:0004E9E6   230 0001:0004E9EA
   232 0001:0004E9FA   233 0001:0004EA0B   235 0001:0004EA2B   236 0001:0004EA39
   238 0001:0004EA3D   239 0001:0004EA4B   236 0001:0004EA59   242 0001:0004EA5D
   245 0001:0004EAD0   246 0001:0004EAEF   247 0001:0004EB07   248 0001:0004EB17
   249 0001:0004EB3D   252 0001:0004EB84   253 0001:0004EBA3   254 0001:0004EBBB
   256 0001:0004EBCB   257 0001:0004EBDC   259 0001:0004EBFC   263 0001:0004EC3C
   264 0001:0004EC42   267 0001:0004EC44   268 0001:0004EC5D   269 0001:0004EC75
   272 0001:0004EC98   273 0001:0004ECB1   274 0001:0004ECC9   283 0001:0004ECEC
   284 0001:0004ED0D   285 0001:0004ED15   288 0001:0004ED1F   289 0001:0004ED2E
   290 0001:0004ED32   291 0001:0004ED41   293 0001:0004ED49   296 0001:0004ED4E
   297 0001:0004ED73   298 0001:0004ED98   303 0001:0004EDC2   304 0001:0004EDE7
   305 0001:0004EE0C   310 0001:0004EE36   311 0001:0004EE45   314 0001:0004EE4D
   315 0001:0004EE72   316 0001:0004EE97   323 0001:0004EEBC   324 0001:0004EECB
   326 0001:0004EEF5   327 0001:0004EF04   328 0001:0004EF08   331 0001:0004EF0E
   332 0001:0004EF1D   334 0001:0004EF21   335 0001:0004EF44   336 0001:0004EF53
   337 0001:0004EF6A   338 0001:0004EF8D   339 0001:0004EF9C   340 0001:0004EFB3
   341 0001:0004EFB7   342 0001:0004EFE0   344 0001:0004F001   345 0001:0004F02E
   348 0001:0004F0B4   349 0001:0004F0D3   350 0001:0004F122   351 0001:0004F132
   352 0001:0004F152   357 0001:0004F18C   358 0001:0004F1A1   359 0001:0004F1AA
   360 0001:0004F1AD   361 0001:0004F1BC   364 0001:0004F1D8   365 0001:0004F1E3
   366 0001:0004F1EB   367 0001:0004F1F7   371 0001:0004F208   372 0001:0004F20E
   375 0001:0004F210   376 0001:0004F216   377 0001:0004F220   380 0001:0004F224
   381 0001:0004F227   382 0001:0004F23F   385 0001:0004F244   386 0001:0004F24C
   387 0001:0004F25A   388 0001:0004F268   386 0001:0004F269   389 0001:0004F26C
   390 0001:0004F26F   395 0001:0004F278   396 0001:0004F27B   397 0001:0004F282
   398 0001:0004F287   400 0001:0004F292   401 0001:0004F294   406 0001:0004F298
   407 0001:0004F2C3   409 0001:0004F2D4   410 0001:0004F2E0   411 0001:0004F2F9
   414 0001:0004F308   416 0001:0004F32C   407 0001:0004F32D   417 0001:0004F330
   418 0001:0004F333   423 0001:0004F370   424 0001:0004F382   425 0001:0004F38B
   430 0001:0004F3A8   435 0001:0004F3AC   440 0001:0004F3B0   441 0001:0004F3C2
   442 0001:0004F3CB   443 0001:0004F3DA   444 0001:0004F3E9   447 0001:0004F404
   448 0001:0004F40F   449 0001:0004F417   450 0001:0004F41F   451 0001:0004F42B
   457 0001:0004F43C   458 0001:0004F44C   460 0001:0004F45A   461 0001:0004F465
   463 0001:0004F46D   464 0001:0004F47B   465 0001:0004F486   467 0001:0004F488
   458 0001:0004F489   469 0001:0004F48C   470 0001:0004F49D   471 0001:0004F4A7
   472 0001:0004F4B2   477 0001:0004F4BC   478 0001:0004F4C4   479 0001:0004F4D0
   481 0001:0004F4DE   482 0001:0004F4E8   483 0001:0004F4EA   478 0001:0004F4EB
   484 0001:0004F4F0   485 0001:0004F4FE   484 0001:0004F510   486 0001:0004F513
   490 0001:0004F518   491 0001:0004F522   496 0001:0004F524   497 0001:0004F52A
   498 0001:0004F52C   499 0001:0004F533   500 0001:0004F541   499 0001:0004F552
   501 0001:0004F555   524 0001:0004F55C   525 0001:0004F55F   526 0001:0004F566
   527 0001:0004F56C   530 0001:0004F570   531 0001:0004F576   532 0001:0004F580
   548 0001:0004F584   550 0001:0004F59C   552 0001:0004F5A9   554 0001:0004F5B5
   558 0001:0004F5C0   562 0001:0004F5DB   563 0001:0004F5E4   552 0001:0004F5E5
   564 0001:0004F5EA   569 0001:0004F610   570 0001:0004F61F   572 0001:0004F62D
   573 0001:0004F642   575 0001:0004F646   570 0001:0004F647   576 0001:0004F64A
   577 0001:0004F64C   583 0001:0004F654   584 0001:0004F665   585 0001:0004F66D
   586 0001:0004F673   588 0001:0004F684   589 0001:0004F690   590 0001:0004F69F
   592 0001:0004F6A4   593 0001:0004F6AC   595 0001:0004F6AE   596 0001:0004F6B9
   586 0001:0004F6BA   597 0001:0004F6BD   602 0001:0004F6C8   603 0001:0004F6D1
   604 0001:0004F6D8   605 0001:0004F6E6   607 0001:0004F6F8   608 0001:0004F6FB
   609 0001:0004F6FD   604 0001:0004F6FE   610 0001:0004F701   611 0001:0004F707
   612 0001:0004F716   617 0001:0004F71C   618 0001:0004F724   619 0001:0004F732
   618 0001:0004F744   620 0001:0004F747   633 0001:0004F74C   634 0001:0004F764
   636 0001:0004F76D   637 0001:0004F76F   640 0001:0004F774   641 0001:0004F77D
   643 0001:0004F7B7   645 0001:0004F7C4   646 0001:0004F7D1   647 0001:0004F7DF
   648 0001:0004F7E8   649 0001:0004F820   651 0001:0004F829   652 0001:0004F835
   654 0001:0004F83E   655 0001:0004F84F   656 0001:0004F85C   661 0001:0004F865
   662 0001:0004F876   665 0001:0004F88A   669 0001:0004F89C   671 0001:0004F8A5
   672 0001:0004F8B2   673 0001:0004F8C0   675 0001:0004F8D9   678 0001:0004F8EB
   679 0001:0004F8F1   682 0001:0004F998   683 0001:0004F99E   684 0001:0004F9A5
   685 0001:0004F9B3   687 0001:0004F9BC   688 0001:0004F9C9   689 0001:0004F9D7
   690 0001:0004F9E0   692 0001:0004F9F7   695 0001:0004FA09   696 0001:0004FA1B
   697 0001:0004FA25   700 0001:0004FA3B   701 0001:0004FA40   702 0001:0004FA52
   707 0001:0004FA58   708 0001:0004FA5E   709 0001:0004FA63   710 0001:0004FA67
   711 0001:0004FA6F   716 0001:0004FA74   717 0001:0004FA77   718 0001:0004FA7C
   719 0001:0004FA80   720 0001:0004FA87   745 0001:0004FA8C   747 0001:0004FA9E
   749 0001:0004FAA3

Line numbers for JclUnitVersioning(JclUnitVersioning.pas) segment .itext

   738 0002:00000AC4   740 0002:00000ACD   743 0002:00000ADC

Line numbers for JclPeImage(JclPeImage.pas) segment .text

  1138 0001:00054E68  1139 0001:00054E88  1140 0001:00054E8E  1142 0001:00054E92
  1143 0001:00054EB9  1144 0001:00054EC5  1146 0001:00054EDA  1151 0001:00054F18
  1158 0001:00054F24  1159 0001:00054F2A  1160 0001:00054F30  1162 0001:00054F3E
  1164 0001:00054F4B  1165 0001:00054F5B  1183 0001:00054F60  1184 0001:00054F7C
  1185 0001:00054F91  1187 0001:00054F9F  1188 0001:00054FAB  1189 0001:00054FB4
  1191 0001:00054FC0  1192 0001:00054FD5  1194 0001:00054FE6  1195 0001:00054FF4
  1196 0001:00054FFD  1198 0001:00055014  1185 0001:00055015  1199 0001:00055018
  1201 0001:0005504C  1202 0001:0005505D  1203 0001:00055063  1205 0001:00055074
  1206 0001:0005507A  1207 0001:00055088  1208 0001:00055097  1209 0001:000550A5
  1210 0001:000550AF  1211 0001:000550B6  1213 0001:000550CE  1214 0001:000550DB
  1217 0001:000550F2  1218 0001:000550F8  1220 0001:00055108  1226 0001:00055114
  1227 0001:0005511B  1228 0001:00055124  1229 0001:00055135  1230 0001:0005513E
  1232 0001:00055155  1233 0001:00055232  1235 0001:0005523F  1241 0001:00055244
  1242 0001:0005526F  1243 0001:00055275  1245 0001:00055286  1246 0001:00055293
  1248 0001:0005529D  1250 0001:000552C7  1251 0001:000552D2  1252 0001:000552D8
  1254 0001:000552E9  1257 0001:000552F8  1259 0001:000552FA  1264 0001:00055324
  1265 0001:00055337  1266 0001:00055340  1267 0001:00055351  1268 0001:0005535A
  1269 0001:00055361  1272 0001:0005537C  1273 0001:00055387  1274 0001:0005538E
  1275 0001:0005539E  1276 0001:000553AA  1281 0001:000553B8  1282 0001:000553BE
  1283 0001:000553C1  1284 0001:000553D2  1283 0001:000553E1  1285 0001:000553E4
  1286 0001:000553EC  1290 0001:000553F4  1291 0001:000553FC  1296 0001:00055400
  1297 0001:00055407  1298 0001:00055413  1300 0001:00055418  1301 0001:00055427
  1302 0001:00055430  1305 0001:0005543E  1306 0001:0005544A  1310 0001:00055450
  1311 0001:00055455  1316 0001:00055458  1317 0001:0005546D  1318 0001:00055478
  1319 0001:0005547B  1324 0001:00055498  1325 0001:000554B4  1326 0001:000554C1
  1327 0001:000554C5  1328 0001:000554EA  1329 0001:000554EE  1330 0001:000554F8
  1334 0001:00055524  1335 0001:0005552A  1339 0001:0005552C  1340 0001:00055536
  1344 0001:00055538  1345 0001:0005553E  1348 0001:00055540  1349 0001:0005555C
  1351 0001:00055581  1352 0001:00055585  1353 0001:00055590  1357 0001:000555BC
  1358 0001:000555C2  1361 0001:000555C4  1362 0001:000555E0  1364 0001:00055605
  1365 0001:00055609  1366 0001:00055613  1370 0001:00055640  1371 0001:00055646
  1382 0001:00055648  1383 0001:00055658  1387 0001:0005565C  1389 0001:00055662
  1392 0001:00055664  1393 0001:00055680  1394 0001:000556A3  1395 0001:000556A7
  1396 0001:000556B2  1403 0001:000556E0  1404 0001:000556EA  1410 0001:000556EC
  1411 0001:00055704  1412 0001:0005570D  1413 0001:00055710  1414 0001:00055718
  1415 0001:00055720  1416 0001:0005572B  1417 0001:0005572F  1418 0001:00055733
  1422 0001:00055754  1423 0001:0005575C  1426 0001:00055760  1427 0001:00055766
  1428 0001:00055770  1429 0001:00055774  1439 0001:00055778  1440 0001:0005577B
  1447 0001:0005577C  1448 0001:00055796  1449 0001:0005579F  1450 0001:000557A3
  1451 0001:000557A9  1452 0001:000557B0  1453 0001:000557BB  1454 0001:000557BE
  1455 0001:000557C1  1461 0001:000557E4  1462 0001:000557ED  1464 0001:000557FC
  1465 0001:00055800  1466 0001:0005580A  1468 0001:0005581F  1469 0001:0005582A
  1471 0001:00055835  1472 0001:00055845  1475 0001:00055850  1476 0001:00055859
  1481 0001:0005585F  1482 0001:00055877  1485 0001:00055882  1486 0001:0005588B
  1489 0001:0005588F  1466 0001:00055890  1493 0001:00055895  1494 0001:00055899
  1495 0001:000558AA  1494 0001:000558BB  1497 0001:000558BE  1507 0001:000558C4
  1508 0001:000558E6  1511 0001:000558F4  1512 0001:000558FA  1513 0001:00055900
  1514 0001:00055902  1516 0001:0005590A  1519 0001:0005591E  1520 0001:00055931
  1521 0001:0005593B  1525 0001:00055943  1526 0001:00055956  1527 0001:00055960
  1532 0001:00055968  1533 0001:00055973  1534 0001:000559A8  1535 0001:000559B2
  1536 0001:000559EC  1509 0001:000559EF  1538 0001:000559F9  1547 0001:00055A30
  1548 0001:00055A52  1551 0001:00055A60  1552 0001:00055A62  1553 0001:00055A68
  1554 0001:00055A6A  1556 0001:00055A81  1559 0001:00055A95  1560 0001:00055AA8
  1561 0001:00055AB2  1565 0001:00055ABA  1566 0001:00055ACD  1567 0001:00055AD7
  1572 0001:00055ADF  1573 0001:00055AEB  1574 0001:00055B20  1575 0001:00055B2A
  1576 0001:00055B60  1549 0001:00055B63  1578 0001:00055B76  1579 0001:00055BAC
  1580 0001:00055BB3  1583 0001:00055BBC  1585 0001:00055BD0  1587 0001:00055BD9
  1590 0001:00055BE0  1591 0001:00055BE8  1594 0001:00055BEC  1595 0001:00055BEF
  1596 0001:00055BF5  1597 0001:00055BFC  1598 0001:00055BFF  1601 0001:00055C04
  1602 0001:00055C1D  1603 0001:00055C34  1606 0001:00055C58  1607 0001:00055C5E
  1608 0001:00055C67  1611 0001:00055C6C  1612 0001:00055C72  1613 0001:00055C7C
  1617 0001:00055C80  1618 0001:00055C89  1620 0001:00055C8D  1621 0001:00055C8F
  1625 0001:00055C90  1626 0001:00055C99  1628 0001:00055C9D  1629 0001:00055C9F
  1633 0001:00055CA0  1634 0001:00055CA3  1638 0001:00055CA4  1639 0001:00055CA7
  1643 0001:00055CA8  1644 0001:00055CAB  1648 0001:00055CAC  1649 0001:00055CAF
  1650 0001:00055CB2  1653 0001:00055CB4  1654 0001:00055CBE  1656 0001:00055CD2
  1657 0001:00055CD9  1658 0001:00055CED  1659 0001:00055CF0  1660 0001:00055CF7
  1662 0001:00055CFB  1667 0001:00055D00  1668 0001:00055D17  1669 0001:00055D20
  1670 0001:00055D31  1671 0001:00055D3D  1672 0001:00055D4E  1673 0001:00055D57
  1674 0001:00055D5E  1675 0001:00055D62  1676 0001:00055D66  1677 0001:00055D6D
  1682 0001:00055D8C  1683 0001:00055D99  1684 0001:00055DA9  1685 0001:00055DB9
  1686 0001:00055DCB  1685 0001:00055DD7  1687 0001:00055DDA  1688 0001:00055DE6
  1694 0001:00055DF8  1695 0001:00055E1C  1696 0001:00055E24  1697 0001:00055E2A
  1699 0001:00055E31  1700 0001:00055E42  1701 0001:00055E50  1702 0001:00055E5B
  1704 0001:00055E6A  1705 0001:00055E70  1707 0001:00055E91  1708 0001:00055EAD
  1709 0001:00055EBA  1710 0001:00055ECB  1701 0001:00055ECC  1712 0001:00055EDC
  1713 0001:00055EE2  1715 0001:00055EF2  1723 0001:00055F1C  1726 0001:00055F40
  1727 0001:00055F60  1728 0001:00055F86  1729 0001:00055F91  1731 0001:00055FC1
  1732 0001:00055FD7  1733 0001:00055FFF  1724 0001:00056002  1735 0001:0005600C
  1742 0001:0005604C  1745 0001:00056070  1746 0001:00056090  1747 0001:000560B6
  1748 0001:000560C1  1750 0001:000560F1  1751 0001:00056107  1752 0001:0005612F
  1743 0001:00056132  1754 0001:0005613C  1765 0001:0005617C  1766 0001:000561A0
  1767 0001:000561AD  1769 0001:000561B3  1771 0001:000561C2  1772 0001:000561CF
  1775 0001:000561DC  1777 0001:000561E1  1778 0001:000561E7  1780 0001:000561EE
  1781 0001:000561FB  1785 0001:00056204  1786 0001:00056210  1788 0001:00056217
  1789 0001:00056230  1790 0001:00056256  1791 0001:00056261  1792 0001:00056281
  1793 0001:0005628C  1794 0001:000562B3  1773 0001:000562B6  1796 0001:000562C0
  1797 0001:000562CB  1799 0001:000562CF  1801 0001:000562DD  1803 0001:000562E6
  1806 0001:000562ED  1807 0001:000562FB  1809 0001:00056305  1812 0001:0005630D
  1813 0001:00056321  1814 0001:00056347  1815 0001:00056352  1816 0001:0005635D
  1817 0001:0005636D  1818 0001:00056371  1819 0001:00056385  1820 0001:0005638D
  1819 0001:00056390  1821 0001:00056393  1810 0001:00056396  1825 0001:000563A1
  1826 0001:000563AF  1825 0001:000563C1  1827 0001:000563C4  1830 0001:00056410
  1831 0001:00056413  1832 0001:00056419  1834 0001:0005641D  1835 0001:00056424
  1837 0001:0005642A  1845 0001:0005642C  1846 0001:00056432  1847 0001:0005643B
  1851 0001:00056440  1852 0001:00056448  1871 0001:0005644C  1872 0001:00056455
  1873 0001:00056461  1879 0001:00056468  1880 0001:00056473  1883 0001:0005649A
  1884 0001:000564AB  1885 0001:000564B9  1886 0001:000564C7  1887 0001:000564D2
  1889 0001:000564DC  1890 0001:000564FE  1892 0001:00056518  1893 0001:0005653B
  1894 0001:00056552  1897 0001:00056566  1898 0001:0005656A  1899 0001:00056577
  1900 0001:00056598  1904 0001:000565AE  1905 0001:000565B4  1906 0001:000565C1
  1907 0001:000565E2  1910 0001:000565F6  1890 0001:000565F7  1913 0001:0005660D
  1917 0001:0005661D  1918 0001:00056621  1924 0001:00056730  1925 0001:0005674E
  1926 0001:00056756  1928 0001:00056769  1929 0001:00056776  1930 0001:000567A9
  1931 0001:000567BB  1930 0001:000567D0  1932 0001:000567D3  1926 0001:000567D6
  1933 0001:000567DB  1936 0001:00056800  1937 0001:00056806  1939 0001:0005681B
  1940 0001:00056825  1941 0001:0005682C  1943 0001:00056843  1950 0001:00056848
  1951 0001:00056875  1952 0001:0005687A  1954 0001:00056894  1955 0001:000568A1
  1956 0001:000568ED  1957 0001:000568FE  1959 0001:0005691A  1960 0001:00056926
  1961 0001:00056928  1956 0001:00056929  1962 0001:0005692C  1952 0001:0005692F
  1963 0001:00056938  1966 0001:0005696C  1967 0001:00056976  1968 0001:0005697D
  1969 0001:00056992  1970 0001:00056995  1971 0001:0005699C  1974 0001:000569A0
  1975 0001:000569A6  1976 0001:000569B6  1991 0001:000569BC  1992 0001:000569DE
  1993 0001:000569ED  1995 0001:00056A0A  1996 0001:00056A28  1998 0001:00056A3B
  1999 0001:00056A49  2001 0001:00056A66  2002 0001:00056A76  2004 0001:00056A8F
  2006 0001:00056AA5  2007 0001:00056AB1  2009 0001:00056ABC  2010 0001:00056ACB
  2011 0001:00056ADA  2013 0001:00056AE7  2004 0001:00056AEA  2014 0001:00056AED
  2016 0001:00056AF6  1999 0001:00056AF9  2017 0001:00056B02  2019 0001:00056B30
  2020 0001:00056B55  2021 0001:00056B64  2022 0001:00056B72  2023 0001:00056B7C
  2024 0001:00056B83  2025 0001:00056B99  2026 0001:00056BA6  2027 0001:00056BB7
  2028 0001:00056BC9  2026 0001:00056BEA  2028 0001:00056BED  2024 0001:00056BF0
  2029 0001:00056BF5  2030 0001:00056C06  2031 0001:00056C14  2032 0001:00056C27
  2031 0001:00056C3F  2034 0001:00056C51  2036 0001:00056C61  2038 0001:00056C84
  2040 0001:00056C94  2049 0001:00056CC0  2050 0001:00056CDA  2051 0001:00056CE3
  2052 0001:00056CE6  2053 0001:00056CF1  2054 0001:00056CFC  2055 0001:00056D02
  2056 0001:00056D0A  2057 0001:00056D12  2059 0001:00056D19  2060 0001:00056D28
  2061 0001:00056D2C  2063 0001:00056D4D  2064 0001:00056D57  2067 0001:00056D88
  2068 0001:00056D91  2069 0001:00056D9C  2071 0001:00056DA8  2072 0001:00056DC6
  2075 0001:00056DE4  2076 0001:00056DEA  2077 0001:00056E0C  2079 0001:00056E19
  2080 0001:00056E22  2084 0001:00056E28  2085 0001:00056E4A  2087 0001:00056E55
  2088 0001:00056E57  2091 0001:00056E58  2092 0001:00056E7C  2093 0001:00056E8E
  2095 0001:00056E9A  2096 0001:00056EE2  2099 0001:00056F24  2100 0001:00056F2E
  2107 0001:00056F42  2111 0001:00056F57  2115 0001:00056F5B  2117 0001:00056F5D
  2121 0001:00056F68  2122 0001:00056F79  2126 0001:00056F7C  2127 0001:00056F8B
  2130 0001:00056F8C  2131 0001:00056F93  2132 0001:00056F9E  2134 0001:00056FA9
  2135 0001:00056FAF  2136 0001:00056FBB  2140 0001:00056FC0  2141 0001:00056FC3
  2146 0001:00056FC4  2147 0001:00056FCF  2151 0001:00056FD0  2152 0001:00056FD6
  2156 0001:00056FD8  2157 0001:00056FE2  2161 0001:00056FE4  2162 0001:00056FEA
  2166 0001:00056FEC  2167 0001:00056FF6  2171 0001:00056FF8  2172 0001:00056FFE
  2176 0001:00057000  2177 0001:00057006  2178 0001:0005700A  2179 0001:00057011
  2183 0001:00057014  2184 0001:0005701A  2187 0001:0005701C  2188 0001:00057022
  2189 0001:0005702D  2190 0001:00057031  2191 0001:0005703A  2195 0001:00057040
  2196 0001:00057046  2199 0001:00057048  2200 0001:00057063  2201 0001:00057086
  2205 0001:000570B0  2206 0001:000570B6  2209 0001:000570B8  2210 0001:000570D4
  2211 0001:000570F7  2212 0001:000570FB  2213 0001:00057106  2217 0001:00057134
  2218 0001:0005713A  2223 0001:0005713C  2224 0001:0005714E  2225 0001:00057157
  2226 0001:0005715B  2227 0001:00057162  2230 0001:0005717C  2231 0001:00057187
  2232 0001:00057197  2233 0001:000571A3  2237 0001:000571B4  2238 0001:000571CB
  2252 0001:000571CC  2253 0001:000571EE  2254 0001:000571FC  2255 0001:00057204
  2256 0001:0005720B  2258 0001:0005721C  2259 0001:0005722B  2262 0001:00057253
  2264 0001:0005726C  2265 0001:00057275  2268 0001:0005727E  2269 0001:00057287
  2256 0001:00057288  2270 0001:0005728B  2272 0001:000572B4  2273 0001:000572DC
  2275 0001:000572E9  2276 0001:000572F0  2277 0001:000572F6  2279 0001:000572FD
  2280 0001:0005730E  2281 0001:0005731C  2283 0001:00057337  2284 0001:0005735A
  2285 0001:00057360  2287 0001:00057370  2288 0001:0005737B  2289 0001:00057387
  2291 0001:000573A5  2292 0001:000573A9  2293 0001:000573BA  2294 0001:000573C0
  2295 0001:000573C7  2281 0001:000573C8  2297 0001:000573DC  2298 0001:000573E2
  2300 0001:000573F2  2313 0001:00057424  2314 0001:0005744E  2316 0001:00057454
  2318 0001:00057464  2320 0001:00057471  2321 0001:00057477  2323 0001:0005747D
  2324 0001:0005748C  2326 0001:00057494  2327 0001:0005749A  2328 0001:000574A3
  2329 0001:000574B4  2330 0001:000574C5  2331 0001:000574D6  2332 0001:000574DF
  2334 0001:000574E9  2336 0001:000574FB  2337 0001:00057506  2339 0001:00057510
  2340 0001:00057514  2341 0001:0005752D  2342 0001:00057553  2345 0001:00057560
  2347 0001:0005756A  2350 0001:0005758F  2351 0001:00057595  2334 0001:00057596
  2353 0001:0005759F  2356 0001:000575AD  2357 0001:000575C9  2358 0001:000575EF
  2360 0001:000575FA  2361 0001:00057606  2362 0001:00057611  2364 0001:00057615
  2365 0001:00057619  2366 0001:0005761D  2353 0001:0005761E  2369 0001:00057623
  2374 0001:00057664  2375 0001:00057681  2377 0001:00057687  2378 0001:00057698
  2379 0001:000576A1  2380 0001:000576A8  2381 0001:000576AE  2382 0001:000576C1
  2383 0001:000576CD  2384 0001:000576D8  2381 0001:000576F2  2386 0001:000576F7
  2387 0001:000576FA  2406 0001:00057720  2407 0001:0005772C  2408 0001:00057732
  2410 0001:0005773D  2411 0001:0005773F  2412 0001:00057743  2413 0001:00057748
  2415 0001:0005774C  2416 0001:00057752  2417 0001:0005776A  2418 0001:00057771
  2421 0001:00057776  2422 0001:00057779  2424 0001:00057780  2425 0001:00057785
  2413 0001:00057787  2429 0001:0005778B  2430 0001:00057792  2433 0001:000577A1
  2434 0001:000577AC  2436 0001:000577C2  2437 0001:000577CF  2438 0001:000577D1
  2433 0001:000577D2  2439 0001:000577D5  2444 0001:000577E4  2445 0001:000577ED
  2446 0001:000577F2  2447 0001:000577FD  2449 0001:0005780E  2450 0001:0005781A
  2451 0001:0005781C  2446 0001:0005781D  2452 0001:00057820  2455 0001:0005782C
  2456 0001:00057832  2457 0001:0005783B  2462 0001:00057840  2463 0001:0005785C
  2464 0001:00057869  2467 0001:00057874  2468 0001:0005788E  2469 0001:000578B0
  2471 0001:000578BA  2474 0001:000578E8  2475 0001:000578EE  2476 0001:000578F2
  2478 0001:000578FE  2479 0001:00057908  2483 0001:0005790C  2485 0001:00057926
  2488 0001:00057928  2489 0001:0005792B  2490 0001:00057936  2491 0001:00057941
  2497 0001:00057944  2498 0001:00057952  2499 0001:00057958  2501 0001:00057963
  2503 0001:0005797E  2504 0001:0005798B  2506 0001:0005798D  2499 0001:0005798E
  2507 0001:00057991  2520 0001:0005799C  2521 0001:000579A6  2523 0001:000579BA
  2524 0001:000579D2  2525 0001:000579D5  2526 0001:000579DC  2528 0001:000579E0
  2533 0001:000579E4  2534 0001:000579F9  2535 0001:00057A18  2536 0001:00057A21
  2537 0001:00057A3A  2541 0001:00057B5C  2542 0001:00057B73  2548 0001:00057B74
  2549 0001:00057B91  2550 0001:00057B9A  2551 0001:00057B9D  2552 0001:00057BA3
  2553 0001:00057BA6  2554 0001:00057BAA  2556 0001:00057BB0  2557 0001:00057BB8
  2560 0001:00057BDC  2561 0001:00057BE7  2562 0001:00057BF7  2563 0001:00057C03
  2568 0001:00057C14  2569 0001:00057C2D  2570 0001:00057C38  2572 0001:00057C4C
  2573 0001:00057C56  2574 0001:00057C61  2577 0001:00057C88  2578 0001:00057C8B
  2579 0001:00057C96  2581 0001:00057C9A  2582 0001:00057CA7  2586 0001:00057CAC
  2587 0001:00057CB6  2591 0001:00057CB8  2592 0001:00057CC2  2595 0001:00057CC4
  2596 0001:00057CDD  2598 0001:00057CE8  2599 0001:00057CEF  2600 0001:00057CF8
  2602 0001:00057D17  2605 0001:00057D1B  2606 0001:00057D31  2609 0001:00057D5C
  2610 0001:00057D60  2612 0001:00057D6B  2614 0001:00057D74  2615 0001:00057D76
  2618 0001:00057D79  2620 0001:00057D90  2621 0001:00057D96  2622 0001:00057DAC
  2623 0001:00057DAF  2626 0001:00057DB4  2627 0001:00057DBB  2629 0001:00057DC6
  2631 0001:00057DCC  2632 0001:00057DDA  2633 0001:00057DE8  2635 0001:00057DF0
  2638 0001:00057DFC  2639 0001:00057E11  2642 0001:00057E18  2643 0001:00057E21
  2644 0001:00057E2C  2646 0001:00057E37  2647 0001:00057E5B  2650 0001:00057E74
  2651 0001:00057E77  2652 0001:00057E82  2654 0001:00057E86  2655 0001:00057E97
  2658 0001:00057E9C  2659 0001:00057E9F  2660 0001:00057EAA  2662 0001:00057EAF
  2663 0001:00057EBF  2667 0001:00057EC4  2669 0001:00057EC9  2670 0001:00057ED1
  2672 0001:00057ED5  2674 0001:00057ED7  2677 0001:00057ED8  2678 0001:00057EF0
  2680 0001:00057EF7  2681 0001:00057F01  2683 0001:00057F25  2685 0001:00057F2E
  2689 0001:00057F54  2691 0001:00057F56  2690 0001:00057F58  2692 0001:00057F5F
  2696 0001:00057F60  2697 0001:00057F6E  2700 0001:00057F70  2701 0001:00057F73
  2702 0001:00057F80  2708 0001:00057F84  2709 0001:00057F9E  2710 0001:00057FA7
  2711 0001:00057FAD  2712 0001:00057FB0  2713 0001:00057FB9  2720 0001:00057FDC
  2721 0001:00057FE6  2723 0001:00057FED  2724 0001:00057FF3  2726 0001:00058001
  2727 0001:0005800E  2728 0001:00058017  2724 0001:0005801A  2730 0001:0005801D
  2735 0001:00058024  2736 0001:00058045  2737 0001:0005804A  2738 0001:00058055
  2740 0001:00058077  2741 0001:00058083  2742 0001:00058085  2737 0001:00058086
  2743 0001:00058089  2746 0001:000580B0  2747 0001:000580B6  2748 0001:000580BF
  2753 0001:000580C4  2754 0001:000580CF  2755 0001:000580DF  2756 0001:000580EB
  2763 0001:000580FC  2764 0001:00058120  2765 0001:00058125  2766 0001:0005812A
  2768 0001:00058135  2770 0001:00058148  2771 0001:00058154  2773 0001:00058156
  2766 0001:00058157  2774 0001:0005815A  2775 0001:00058160  2776 0001:00058166
  2778 0001:0005816E  2779 0001:00058178  2780 0001:00058183  2782 0001:000581A1
  2783 0001:000581AD  2784 0001:000581AF  2779 0001:000581B0  2785 0001:000581B3
  2792 0001:000581DC  2793 0001:000581EC  2794 0001:000581F2  2795 0001:000581F4
  2796 0001:000581FF  2798 0001:00058214  2799 0001:0005821F  2800 0001:00058221
  2795 0001:00058222  2801 0001:00058225  2802 0001:00058229  2803 0001:00058230
  2805 0001:00058236  2806 0001:0005823F  2807 0001:0005824A  2809 0001:00058260
  2810 0001:0005826D  2811 0001:0005826F  2806 0001:00058270  2812 0001:00058273
  2819 0001:00058280  2820 0001:0005829D  2822 0001:000582AA  2823 0001:000582BC
  2824 0001:000582D0  2826 0001:000582D4  2827 0001:000582EA  2828 0001:000582F6
  2832 0001:00058306  2833 0001:00058325  2834 0001:00058333  2836 0001:0005834E
  2840 0001:0005835E  2841 0001:00058364  2848 0001:000583A8  2849 0001:000583C6
  2850 0001:000583CF  2851 0001:000583D5  2853 0001:000583DF  2854 0001:000583E7
  2855 0001:000583F5  2856 0001:000583FF  2858 0001:00058412  2859 0001:0005841F
  2860 0001:00058440  2856 0001:00058443  2862 0001:00058453  2865 0001:00058463
  2870 0001:0005848C  2871 0001:000584A4  2872 0001:000584AD  2873 0001:000584B0
  2874 0001:000584B6  2888 0001:000584D4  2889 0001:000584DA  2893 0001:000584DC
  2894 0001:000584E1  2899 0001:000584E4  2900 0001:000584F6  2901 0001:000584FF
  2902 0001:00058506  2909 0001:00058520  2910 0001:00058526  2912 0001:00058529
  2914 0001:00058534  2915 0001:00058541  2917 0001:00058545  2920 0001:0005854C
  2921 0001:00058554  2922 0001:00058565  2923 0001:00058568  2924 0001:00058571
  2918 0001:00058578  2927 0001:0005857E  2954 0001:00058584  2955 0001:00058596
  2956 0001:0005859F  2957 0001:000585A3  2958 0001:000585AA  2966 0001:000585C4
  2967 0001:000585CD  2969 0001:000585D0  2971 0001:000585DF  2972 0001:000585EC
  2974 0001:000585F6  2977 0001:00058616  2978 0001:0005861A  2982 0001:0005862C
  2984 0001:00058640  2985 0001:0005864F  2988 0001:00058669  2990 0001:0005866F
  2991 0001:00058678  2988 0001:0005867B  2994 0001:0005867E  2997 0001:000586C0
  2998 0001:000586C9  2999 0001:000586DB  3004 0001:000586E0  3005 0001:00058701
  3006 0001:0005870A  3007 0001:0005871C  3008 0001:00058722  3013 0001:00058744
  3014 0001:00058756  3015 0001:0005875F  3016 0001:00058766  3024 0001:00058780
  3025 0001:00058789  3026 0001:00058797  3028 0001:0005879E  3029 0001:000587A9
  3030 0001:000587AD  3032 0001:000587B2  3033 0001:000587C6  3034 0001:000587CB
  3030 0001:000587D4  3036 0001:000587D9  3046 0001:000587E0  3047 0001:000587F2
  3048 0001:000587F5  3049 0001:000587FC  3054 0001:00058818  3055 0001:0005881D
  3056 0001:00058820  3057 0001:0005883E  3061 0001:00058844  3062 0001:0005884A
  3063 0001:00058859  3068 0001:0005885C  3069 0001:00058861  3070 0001:0005886D
  3071 0001:00058876  3072 0001:00058882  3077 0001:00058888  3078 0001:0005889A
  3079 0001:0005889D  3080 0001:000588A1  3081 0001:000588B0  3084 0001:000588CC
  3085 0001:000588D8  3086 0001:000588E3  3087 0001:000588F3  3088 0001:000588FF
  3092 0001:00058910  3098 0001:00058914  3099 0001:00058932  3100 0001:0005893F
  3101 0001:00058943  3104 0001:0005894E  3105 0001:00058954  3106 0001:0005895A
  3108 0001:00058975  3109 0001:00058994  3110 0001:0005899D  3111 0001:000589A8
  3112 0001:000589AD  3113 0001:000589B6  3114 0001:000589C4  3115 0001:000589C9
  3116 0001:000589D2  3117 0001:000589E1  3118 0001:000589E7  3119 0001:000589EF
  3120 0001:000589F6  3122 0001:00058A01  3123 0001:00058A08  3128 0001:00058A34
  3129 0001:00058A52  3130 0001:00058A5F  3131 0001:00058A63  3134 0001:00058A6E
  3135 0001:00058A74  3136 0001:00058A7A  3138 0001:00058A95  3139 0001:00058AB4
  3140 0001:00058ABD  3141 0001:00058AC8  3142 0001:00058ACD  3143 0001:00058AD6
  3144 0001:00058AE4  3145 0001:00058AE9  3146 0001:00058AF2  3147 0001:00058B01
  3148 0001:00058B07  3149 0001:00058B0F  3150 0001:00058B16  3152 0001:00058B21
  3153 0001:00058B28  3154 0001:00058B54  3155 0001:00058B62  3156 0001:00058B6E
  3158 0001:00058B74  3159 0001:00058B84  3161 0001:00058B91  3163 0001:00058B9A
  3165 0001:00058BA3  3167 0001:00058BAA  3172 0001:00058BB0  3173 0001:00058BB6
  3175 0001:00058BC1  3176 0001:00058BC8  3178 0001:00058BDF  3181 0001:00058BE6
  3182 0001:00058BEB  3186 0001:00058BF4  3187 0001:00058BFA  3188 0001:00058C11
  3191 0001:00058C14  3192 0001:00058C17  3193 0001:00058C1F  3194 0001:00058C2F
  3195 0001:00058C3F  3196 0001:00058C4F  3197 0001:00058C5F  3198 0001:00058C6F
  3199 0001:00058C7F  3200 0001:00058C8F  3201 0001:00058C9F  3202 0001:00058CB0
  3203 0001:00058CB9  3204 0001:00058CC6  3205 0001:00058CCA  3206 0001:00058CCE
  3209 0001:00058CD0  3210 0001:00058CD3  3211 0001:00058CE7  3214 0001:00058CF4
  3215 0001:00058CF7  3217 0001:00058D2B  3219 0001:00058D39  3221 0001:00058D47
  3223 0001:00058D55  3225 0001:00058D63  3227 0001:00058D71  3229 0001:00058D7F
  3231 0001:00058D8D  3233 0001:00058D9B  3235 0001:00058DA9  3237 0001:00058DB5
  3242 0001:00058DB8  3243 0001:00058DB9  3244 0001:00058DBE  3245 0001:00058DD1
  3248 0001:00058DD4  3249 0001:00058DF3  3251 0001:00058E42  3253 0001:00058E53
  3255 0001:00058E64  3257 0001:00058E75  3259 0001:00058E86  3261 0001:00058E97
  3263 0001:00058EA8  3265 0001:00058EB9  3267 0001:00058ECA  3269 0001:00058ED8
  3271 0001:00058EE6  3273 0001:00058EF4  3275 0001:00058F02  3277 0001:00058F10
  3279 0001:00058F1E  3281 0001:00058F2C  3283 0001:00058F51  3289 0001:00058F74
  3290 0001:00058FA3  3291 0001:00058FD0  3293 0001:00058FDB  3294 0001:00058FE0
  3295 0001:00059005  3297 0001:00059010  3298 0001:00059022  3301 0001:00059050
  3302 0001:0005906C  3303 0001:00059084  3306 0001:000590A8  3307 0001:000590AB
  3308 0001:000590B1  3309 0001:000590C2  3310 0001:000590C5  3313 0001:000590C8
  3314 0001:000590CB  3315 0001:000590D1  3316 0001:000590E2  3317 0001:000590E5
  3320 0001:000590E8  3321 0001:000590EB  3322 0001:000590F1  3323 0001:00059102
  3324 0001:00059105  3329 0001:00059108  3330 0001:00059123  3332 0001:00059132
  3333 0001:0005914C  3334 0001:0005916E  3337 0001:0005917A  3338 0001:00059183
  3341 0001:000591B0  3342 0001:000591B9  3344 0001:000591C4  3346 0001:000591D2
  3348 0001:000591E7  3350 0001:00059202  3351 0001:00059206  3356 0001:0005920D
  3357 0001:00059211  3359 0001:00059216  3362 0001:0005921C  3363 0001:00059225
  3364 0001:00059237  3367 0001:0005923C  3368 0001:0005923F  3369 0001:00059245
  3370 0001:00059256  3371 0001:00059259  3377 0001:0005925C  3378 0001:00059265
  3379 0001:00059271  3381 0001:0005928A  3382 0001:00059291  3383 0001:00059299
  3384 0001:0005929E  3385 0001:000592AB  3386 0001:000592B8  3387 0001:000592C5
  3389 0001:000592CC  3645 0001:000592D4  3646 0001:000592DC  3649 0001:000592E0
  3650 0001:000592E9  3651 0001:000592FC  3654 0001:00059300  3655 0001:00059309
  3656 0001:0005931D  3664 0001:00059324  3665 0001:00059327  3666 0001:0005932D
  3667 0001:0005933E  3668 0001:00059341  3770 0001:00059344  3771 0001:00059347
  3772 0001:00059352  3774 0001:00059357  3775 0001:00059359  3778 0001:0005935C
  3779 0001:0005935E  3780 0001:00059364  3782 0001:00059376  3783 0001:00059384
  3786 0001:00059388  3787 0001:0005938A  3788 0001:00059390  3790 0001:000593A2
  3791 0001:000593B0  3794 0001:000593B4  3795 0001:000593B7  3796 0001:000593BD
  3797 0001:000593CE  3798 0001:000593D1  3801 0001:000593D4  3802 0001:000593DB
  3804 0001:000593E1  3805 0001:000593F4  3806 0001:000593F8  3807 0001:00059404
  3809 0001:0005941B  3810 0001:0005941E  3816 0001:00059424  3817 0001:0005942B
  3818 0001:00059435  3820 0001:0005943A  3821 0001:0005943E  3825 0001:00059442
  3826 0001:0005944E  3828 0001:00059450  3833 0001:00059454  3834 0001:0005945E
  3835 0001:0005946A  3836 0001:0005946F  3838 0001:0005947A  3839 0001:00059486
  3842 0001:0005948C  3843 0001:00059493  3844 0001:0005949A  3845 0001:0005949F
  3846 0001:000594B0  3847 0001:000594B4  3848 0001:000594B9  3853 0001:000594C0
  3854 0001:000594CA  3856 0001:000594E3  3857 0001:00059505  3859 0001:00059513
  3861 0001:00059545  3864 0001:0005955D  3865 0001:00059563  3868 0001:0005957C
  3869 0001:0005957F  3870 0001:000595A7  3873 0001:000595BC  3874 0001:000595BF
  3876 0001:0005965A  3878 0001:00059668  3880 0001:00059676  3882 0001:00059684
  3884 0001:00059692  3886 0001:000596A0  3888 0001:000596AE  3890 0001:000596BC
  3892 0001:000596CA  3894 0001:000596D8  3896 0001:000596E6  3898 0001:000596F4
  3900 0001:00059702  3902 0001:00059710  3904 0001:0005971E  3906 0001:0005972C
  3908 0001:0005973A  3910 0001:00059748  3912 0001:00059756  3914 0001:00059764
  3916 0001:00059772  3918 0001:00059780  3920 0001:0005978E  3922 0001:0005979C
  3924 0001:000597AA  3926 0001:000597B8  3928 0001:000597C6  3930 0001:000597D4
  3932 0001:000597E2  3934 0001:000597F0  3936 0001:000597FE  3938 0001:0005980C
  3940 0001:0005981A  3942 0001:00059828  3944 0001:00059836  3946 0001:0005983F
  3952 0001:00059844  3953 0001:0005984D  3954 0001:0005985E  3955 0001:0005987C
  3957 0001:00059880  3958 0001:00059890  3959 0001:00059894  3960 0001:000598A7
  3964 0001:000598E2  3968 0001:000598E8  3969 0001:000598F1  3970 0001:00059902
  3971 0001:00059920  3973 0001:00059924  3974 0001:00059934  3975 0001:00059938
  3976 0001:0005994B  3980 0001:00059986  3981 0001:0005998C  3982 0001:00059993
  3984 0001:000599A4  3986 0001:000599AE  3989 0001:000599B8  3991 0001:000599BA
  3994 0001:000599C0  3995 0001:000599C3  3996 0001:000599E8  3999 0001:000599EC
  4000 0001:000599EF  4001 0001:00059A06  4004 0001:00059A08  4005 0001:00059A0B
  4007 0001:00059A62  4009 0001:00059A70  4011 0001:00059A7E  4013 0001:00059A8C
  4015 0001:00059A9A  4017 0001:00059AA8  4019 0001:00059AB6  4021 0001:00059AC4
  4023 0001:00059AD2  4025 0001:00059AE0  4027 0001:00059AEE  4029 0001:00059AFC
  4031 0001:00059B0A  4033 0001:00059B18  4035 0001:00059B26  4037 0001:00059B34
  4039 0001:00059B42  4041 0001:00059B50  4043 0001:00059B59  4046 0001:00059B5C
  4047 0001:00059B62  4048 0001:00059B68  4050 0001:00059B7E  4052 0001:00059B97
  4054 0001:00059BBE  4056 0001:00059BD7  4058 0001:00059BDC  4062 0001:00059BE0
  4063 0001:00059BE5  4071 0001:00059BE8  4072 0001:00059C05  4074 0001:00059C15
  4075 0001:00059C1B  4077 0001:00059C2E  4078 0001:00059C3D  4079 0001:00059C74
  4080 0001:00059C7C  4081 0001:00059C9F  4082 0001:00059CAA  4083 0001:00059CBA
  4075 0001:00059CBD  4085 0001:00059CC6  4090 0001:00059CFC  4091 0001:00059D0E
  4096 0001:00059D10  4097 0001:00059D22  4104 0001:00059D24  4105 0001:00059D2E
  4106 0001:00059D43  4107 0001:00059D4A  4109 0001:00059D62  4110 0001:00059D6E
  4111 0001:00059D75  4114 0001:00059D78  4115 0001:00059D7B  4117 0001:00059D88
  4118 0001:00059D8C  4120 0001:00059D8E  4107 0001:00059D92  4121 0001:00059D95
  4125 0001:00059DA0  4126 0001:00059DA6  4128 0001:00059DAC  4129 0001:00059DBC
  4135 0001:00059DC0  4136 0001:00059DCC  4137 0001:00059DDD  4138 0001:00059DF6
  4139 0001:00059DF8  4140 0001:00059E05  4144 0001:00059E0C  4145 0001:00059E18
  4146 0001:00059E29  4147 0001:00059E71  4148 0001:00059E77  4149 0001:00059E84
  4150 0001:00059E8C  4151 0001:00059E93  4153 0001:00059EA4  4155 0001:00059EB0
  4158 0001:00059EBC  4160 0001:00059EBE  4163 0001:00059EC4  4164 0001:00059EDE
  4166 0001:00059EEE  4167 0001:00059EF9  4168 0001:00059F03  4171 0001:00059F0D
  4173 0001:00059F3F  4174 0001:00059F4A  4176 0001:00059F50  4177 0001:00059F54
  4178 0001:00059F5B  4181 0001:00059F68  4184 0001:00059F6E  4186 0001:00059F7D
  4188 0001:00059F83  4190 0001:00059F89  4192 0001:00059F8D  4194 0001:00059F94
  4215 0001:00059FB8  4216 0001:00059FDA  4217 0001:00059FE7  4218 0001:00059FF1
  4219 0001:00059FFB  4220 0001:00059FFD  4221 0001:0005A008  4218 0001:0005A025
  4222 0001:0005A028  4226 0001:0005A04C  4227 0001:0005A053  4230 0001:0005A054
  4231 0001:0005A057  4232 0001:0005A075  4235 0001:0005A084  4236 0001:0005A087
  4238 0001:0005A092  4239 0001:0005A099  4241 0001:0005A0A1  4247 0001:0005A0A4
  4248 0001:0005A0AE  4249 0001:0005A0BF  4250 0001:0005A0ED  4254 0001:0005A0F4
  4255 0001:0005A0FE  4256 0001:0005A10F  4257 0001:0005A13D  4258 0001:0005A144
  4259 0001:0005A14B  4260 0001:0005A153  4262 0001:0005A164  4264 0001:0005A16E
  4267 0001:0005A178  4269 0001:0005A17A  4288 0001:0005A180  4289 0001:0005A195
  4290 0001:0005A1A4  4291 0001:0005A1B3  4292 0001:0005A1B7  4293 0001:0005A1BB
  4294 0001:0005A1C4  4297 0001:0005A1E0  4298 0001:0005A1EB  4299 0001:0005A1FB
  4300 0001:0005A20B  4301 0001:0005A217  4305 0001:0005A228  4306 0001:0005A22B
  4309 0001:0005A22C  4310 0001:0005A22F  4311 0001:0005A23B  4325 0001:0005A240
  4326 0001:0005A243  4329 0001:0005A244  4330 0001:0005A247  4331 0001:0005A253
  4341 0001:0005A258  4342 0001:0005A25B  4344 0001:0005A283  4346 0001:0005A291
  4348 0001:0005A29F  4350 0001:0005A2AD  4352 0001:0005A2B6  4355 0001:0005A2B8
  4356 0001:0005A2BE  4357 0001:0005A2C7  4358 0001:0005A2D8  4359 0001:0005A2E9
  4360 0001:0005A2FA  4361 0001:0005A30B  4364 0001:0005A310  4365 0001:0005A313
  4367 0001:0005A338  4369 0001:0005A346  4371 0001:0005A354  4373 0001:0005A362
  4375 0001:0005A370  4377 0001:0005A379  4380 0001:0005A37C  4382 0001:0005A387
  4384 0001:0005A394  4386 0001:0005A3A9  4388 0001:0005A3BA  4390 0001:0005A3C4
  4396 0001:0005A3CC  4397 0001:0005A3EA  4398 0001:0005A3FF  4400 0001:0005A405
  4401 0001:0005A416  4402 0001:0005A41C  4403 0001:0005A441  4405 0001:0005A447
  4406 0001:0005A452  4409 0001:0005A45D  4410 0001:0005A46C  4412 0001:0005A470
  4413 0001:0005A47A  4415 0001:0005A480  4417 0001:0005A49A  4420 0001:0005A4A2
  4423 0001:0005A514  4424 0001:0005A51A  4425 0001:0005A524  4428 0001:0005A528
  4429 0001:0005A52F  4430 0001:0005A538  4431 0001:0005A54C  4432 0001:0005A55D
  4433 0001:0005A56E  4434 0001:0005A57F  4435 0001:0005A590  4442 0001:0005A594
  4443 0001:0005A5AC  4444 0001:0005A5B5  4445 0001:0005A5B8  4446 0001:0005A5BF
  4447 0001:0005A5C5  4448 0001:0005A5D0  4449 0001:0005A5DB  4454 0001:0005A5FC
  4455 0001:0005A603  4456 0001:0005A615  4457 0001:0005A623  4459 0001:0005A63A
  4461 0001:0005A64A  4466 0001:0005A650  4467 0001:0005A65A  4468 0001:0005A669
  4469 0001:0005A677  4470 0001:0005A681  4471 0001:0005A68D  4473 0001:0005A6A4
  4475 0001:0005A6B4  4478 0001:0005A6BC  4479 0001:0005A6C2  4480 0001:0005A6C8
  4482 0001:0005A6D9  4483 0001:0005A6E2  4484 0001:0005A6EC  4489 0001:0005A704
  4490 0001:0005A71D  4491 0001:0005A72E  4492 0001:0005A732  4493 0001:0005A73D
  4496 0001:0005A75C  4497 0001:0005A767  4498 0001:0005A773  4499 0001:0005A783
  4504 0001:0005A794  4505 0001:0005A79A  4506 0001:0005A7A1  4507 0001:0005A7AC
  4509 0001:0005A7B5  4510 0001:0005A7C8  4511 0001:0005A7DC  4512 0001:0005A7EF
  4513 0001:0005A7F5  4515 0001:0005A808  4518 0001:0005A87C  4519 0001:0005A87F
  4520 0001:0005A887  4521 0001:0005A897  4522 0001:0005A89E  4523 0001:0005A8A5
  4524 0001:0005A8A9  4525 0001:0005A8AD  4526 0001:0005A8B5  4542 0001:0005A8B8
  4543 0001:0005A8D8  4544 0001:0005A8E9  4545 0001:0005A8F7  4548 0001:0005A928
  4549 0001:0005A93F  4550 0001:0005A94D  4551 0001:0005A955  4552 0001:0005A963
  4553 0001:0005A96E  4554 0001:0005A979  4557 0001:0005A9B7  4561 0001:0005A9D4
  4563 0001:0005A9E4  4565 0001:0005AA0C  4566 0001:0005AA16  4567 0001:0005AA22
  4569 0001:0005AA2A  4570 0001:0005AA33  4571 0001:0005AA37  4572 0001:0005AA3E
  4573 0001:0005AA49  4572 0001:0005AA66  4575 0001:0005AA69  4582 0001:0005AA70
  4583 0001:0005AA95  4584 0001:0005AA9C  4586 0001:0005AAA6  4587 0001:0005AAB5
  4588 0001:0005AABD  4589 0001:0005AACB  4591 0001:0005AADD  4592 0001:0005AAEA
  4594 0001:0005AB08  4595 0001:0005AB0E  4597 0001:0005AB43  4599 0001:0005AB4E
  4589 0001:0005AB4F  4601 0001:0005AB5F  4602 0001:0005AB67  4604 0001:0005AB77
  4607 0001:0005ABD8  4608 0001:0005ABDC  4610 0001:0005ABE3  4611 0001:0005ABEF
  4614 0001:0005ABF7  4615 0001:0005ABF9  4618 0001:0005ABFC  4619 0001:0005ABFF
  4620 0001:0005AC08  4621 0001:0005AC0F  4622 0001:0005AC15  4643 0001:0005AC18
  4644 0001:0005AC1C  4646 0001:0005AC2D  4647 0001:0005AC44  4648 0001:0005AC48
  4650 0001:0005AC4D  4651 0001:0005AC50  4659 0001:0005AC54  4660 0001:0005AC73
  4661 0001:0005AC75  4662 0001:0005AC89  4664 0001:0005ACAA  4665 0001:0005ACBE
  4669 0001:0005AD6A  4670 0001:0005AD95  4673 0001:0005AD97  4675 0001:0005AE04
  4676 0001:0005AE23  4678 0001:0005AE38  4679 0001:0005AE42  4681 0001:0005AE53
  4682 0001:0005AE5F  4684 0001:0005AE6A  4679 0001:0005AE6B  4685 0001:0005AE6E
  4687 0001:0005AE7A  4688 0001:0005AE88  4691 0001:0005AE8F  4692 0001:0005AE98
  4695 0001:0005AEC0  4696 0001:0005AEC4  4698 0001:0005AED5  4699 0001:0005AEDC
  4700 0001:0005AEF0  4701 0001:0005AEF7  4703 0001:0005AEFE  4704 0001:0005AF01
  5737 0001:0005AF04  5738 0001:0005AF08  5739 0001:0005AF0A  5741 0001:0005AF16
  5744 0001:0005AF25  5745 0001:0005AF2A  5747 0001:0005AF41  5748 0001:0005AF43
  5776 0001:0005AF48  5777 0001:0005AF4C  5778 0001:0005AF4E  5780 0001:0005AF5A
  5783 0001:0005AF69  5784 0001:0005AF6E  5786 0001:0005AF85  5787 0001:0005AF87
  5815 0001:0005AF8C  5816 0001:0005AF8F  5818 0001:0005AFA0  5820 0001:0005AFA9
  5823 0001:0005AFB2  5825 0001:0005AFB4  5843 0001:0005AFB8  5844 0001:0005AFB9
  5845 0001:0005AFBB  5846 0001:0005AFC0  5847 0001:0005AFC4  5848 0001:0005AFC7
  5862 0001:0005AFCC  5863 0001:0005AFCD  5864 0001:0005AFCF  5865 0001:0005AFD4
  5866 0001:0005AFD8  5867 0001:0005AFDB  5938 0001:0005AFE0  5939 0001:0005AFE1
  5941 0001:0005AFE3  5942 0001:0005AFE8  5943 0001:0005AFEC  5945 0001:0005AFFE
  5947 0001:0005B002  5949 0001:0005B004  5970 0001:0005B008  5971 0001:0005B00C
  5973 0001:0005B00F  5975 0001:0005B01A  6001 0001:0005B01C  6002 0001:0005B020
  6004 0001:0005B023  6006 0001:0005B02E  6037 0001:0005B030  6038 0001:0005B053
  6039 0001:0005B058  6041 0001:0005B05C  6042 0001:0005B07C  6043 0001:0005B08B
  6044 0001:0005B095  6045 0001:0005B09E  6046 0001:0005B0A8  6048 0001:0005B0BA
  6049 0001:0005B0BD  6052 0001:0005B0BF  6045 0001:0005B0C2  6054 0001:0005B0C5
  6063 0001:0005B0F4  6064 0001:0005B117  6065 0001:0005B11C  6067 0001:0005B120
  6068 0001:0005B140  6069 0001:0005B14F  6070 0001:0005B159  6071 0001:0005B162
  6072 0001:0005B16C  6074 0001:0005B17E  6075 0001:0005B181  6078 0001:0005B183
  6071 0001:0005B186  6080 0001:0005B189  6106 0001:0005B1B8  6107 0001:0005B1BC
  6108 0001:0005B1BE  6109 0001:0005B1C3  6110 0001:0005B1C7  6111 0001:0005B1D0
  6116 0001:0005B1D8  6117 0001:0005B1DC  6118 0001:0005B1DE  6119 0001:0005B1E3
  6120 0001:0005B1E7  6121 0001:0005B1F0  6122 0001:0005B1F8  6123 0001:0005B1FE
  6125 0001:0005B20F  6127 0001:0005B21B  6130 0001:0005B227  6132 0001:0005B229
  6210 0001:0005B22C  6211 0001:0005B244  6212 0001:0005B24D  6213 0001:0005B259
  6221 0001:0005B278  6222 0001:0005B285  6223 0001:0005B288  6226 0001:0005B29B
  6227 0001:0005B2A2  6228 0001:0005B2A6  6229 0001:0005B2BD  6233 0001:0005B2C8
  6234 0001:0005B2CF  6235 0001:0005B2D3  6236 0001:0005B2EA  6240 0001:0005B2F5
  6242 0001:0005B30C  6243 0001:0005B310  6245 0001:0005B332  6246 0001:0005B33D
  6247 0001:0005B34C  6248 0001:0005B358  6252 0001:0005B360  6253 0001:0005B377
  6549 0001:0005B378  6550 0001:0005B37B  6552 0001:0005B384  6553 0001:0005B38B
  6555 0001:0005B3A2  6560 0001:0005B3A4  6561 0001:0005B3B0  6564 0001:0005B3B4
  6565 0001:0005B3C7  6562 0001:0005B3C9  6569 0001:0005B3D9  6571 0001:0005B3E3
  6572 0001:0005B3ED  6575 0001:0005B3F8  6576 0001:0005B400  6577 0001:0005B402
  6578 0001:0005B408  6567 0001:0005B409  6580 0001:0005B414  6583 0001:0005B41C
  6584 0001:0005B41F  6586 0001:0005B438  6587 0001:0005B43F  6588 0001:0005B448
  6589 0001:0005B44F  6590 0001:0005B459  6591 0001:0005B462  6594 0001:0005B46E
  6595 0001:0005B475  6598 0001:0005B480  6599 0001:0005B491  6601 0001:0005B498
  6602 0001:0005B49F  6606 0001:0005B4A3  6607 0001:0005B4AC  6608 0001:0005B4AE
  6604 0001:0005B4B0  6610 0001:0005B4BE  6613 0001:0005B4C4  6614 0001:0005B4DA
  6615 0001:0005B4E3  6616 0001:0005B4E6  6618 0001:0005B4E9  6619 0001:0005B4F3
  6620 0001:0005B4FD  6621 0001:0005B500  6623 0001:0005B515  6626 0001:0005B525
  6627 0001:0005B52E  6631 0001:0005B530  6633 0001:0005B53A  6635 0001:0005B54C
  6637 0001:0005B557  6639 0001:0005B560  6642 0001:0005B565  6643 0001:0005B56E
  6646 0001:0005B570  6647 0001:0005B57A  6648 0001:0005B583  6649 0001:0005B589
  6653 0001:0005B590  6660 0001:0005B599  6661 0001:0005B59E  6662 0001:0005B5A8
  6663 0001:0005B5AD  6664 0001:0005B5B7  6666 0001:0005B5BC  6667 0001:0005B5F2
  6668 0001:0005B612  6669 0001:0005B621  6670 0001:0005B62C  6671 0001:0005B630
  6673 0001:0005B65C  6675 0001:0005B662  6677 0001:0005B668  6679 0001:0005B66C
  6681 0001:0005B676  6682 0001:0005B679  6683 0001:0005B688  6684 0001:0005B693
  6685 0001:0005B699  6686 0001:0005B6A6  6687 0001:0005B6AF  6689 0001:0005B6CB
  6691 0001:0005B6D4  6693 0001:0005B6DD  6695 0001:0005B6E1  6696 0001:0005B6E7
  6697 0001:0005B700  6698 0001:0005B723  6699 0001:0005B72E  6765 0001:0005B76C
  6766 0001:0005B7A1  6767 0001:0005B7A3  6770 0001:0005B7C7  6771 0001:0005B7D3
  6773 0001:0005B7D7  6774 0001:0005B7E8  6777 0001:0005B7F0  6778 0001:0005B800
  6779 0001:0005B811  6780 0001:0005B821  6782 0001:0005B832  6784 0001:0005B83B
  6785 0001:0005B848  6786 0001:0005B873  6788 0001:0005B877  6789 0001:0005B87F
  6790 0001:0005B88A  6794 0001:0005B88E  6796 0001:0005B897  6797 0001:0005B8A6
  6798 0001:0005B8D6  6800 0001:0005B8DA  6801 0001:0005B8E2  6802 0001:0005B8ED
  6805 0001:0005B8EF  6826 0001:0005B9CC  6829 0001:0005B9DE

Line numbers for JclPeImage(JclPeImage.pas) segment .itext

  6822 0002:00000AE0  6823 0002:00000AE9  6825 0002:00000AF8

Line numbers for JclTD32(JclTD32.pas) segment .text

   886 0001:0005E440   887 0001:0005E455   888 0001:0005E46D   889 0001:0005E476
   890 0001:0005E47C   891 0001:0005E482   892 0001:0005E489   895 0001:0005E5A4
   896 0001:0005E5AD   897 0001:0005E5CA   898 0001:0005E5E3   903 0001:0005E6E8
   904 0001:0005E700   905 0001:0005E709   906 0001:0005E70C   907 0001:0005E712
   918 0001:0005E730   919 0001:0005E74E   920 0001:0005E768   921 0001:0005E772
   922 0001:0005E77E   924 0001:0005E790   926 0001:0005E7A6   927 0001:0005E7B3
   928 0001:0005E7BF   930 0001:0005E7E8   927 0001:0005E7E9   931 0001:0005E7EC
   924 0001:0005E7EF   933 0001:0005E7F4   934 0001:0005E807   938 0001:0005E813
   941 0001:0005E938   942 0001:0005E943   943 0001:0005E953   944 0001:0005E95F
   947 0001:0005E970   948 0001:0005E976   949 0001:0005E980   953 0001:0005E984
   954 0001:0005E98A   957 0001:0005E98C   958 0001:0005E995   959 0001:0005E9B2
   960 0001:0005E9C1   965 0001:0005EAC8   966 0001:0005EAD8   967 0001:0005EAE9
   969 0001:0005EAF4   971 0001:0005EAFC   972 0001:0005EB01   973 0001:0005EB10
   976 0001:0005EB12   978 0001:0005EB31   979 0001:0005EB36   980 0001:0005EB46
   982 0001:0005EB48   966 0001:0005EB49   983 0001:0005EB4C   984 0001:0005EB51
   985 0001:0005EB59   990 0001:0005EB68   991 0001:0005EB7D   992 0001:0005EB95
   993 0001:0005EB9E   994 0001:0005EBA6   999 0001:0005ECC4  1000 0001:0005ECDD
  1001 0001:0005ECF5  1002 0001:0005ED00  1004 0001:0005ED02  1005 0001:0005ED08
  1006 0001:0005ED0E  1008 0001:0005ED14  1013 0001:0005EE34  1014 0001:0005EE4D
  1015 0001:0005EE65  1016 0001:0005EE70  1018 0001:0005EE72  1019 0001:0005EE78
  1021 0001:0005EE7E  1026 0001:0005EF9C  1027 0001:0005EFB5  1028 0001:0005EFCD
  1029 0001:0005EFD8  1031 0001:0005EFDA  1032 0001:0005EFE0  1033 0001:0005EFE6
  1035 0001:0005EFEC  1040 0001:0005F10C  1041 0001:0005F125  1042 0001:0005F13D
  1043 0001:0005F148  1045 0001:0005F14A  1046 0001:0005F150  1047 0001:0005F156
  1049 0001:0005F15C  1054 0001:0005F27C  1055 0001:0005F295  1056 0001:0005F2AD
  1057 0001:0005F2B8  1059 0001:0005F2BA  1060 0001:0005F2C0  1062 0001:0005F2C6
  1067 0001:0005F3E4  1068 0001:0005F3FD  1069 0001:0005F415  1070 0001:0005F420
  1072 0001:0005F422  1073 0001:0005F428  1074 0001:0005F42E  1076 0001:0005F434
  1081 0001:0005F554  1082 0001:0005F56D  1083 0001:0005F585  1084 0001:0005F590
  1086 0001:0005F592  1087 0001:0005F598  1088 0001:0005F59E  1090 0001:0005F5A6
  1095 0001:0005F6C4  1096 0001:0005F6DD  1097 0001:0005F6F5  1098 0001:0005F700
  1100 0001:0005F702  1101 0001:0005F708  1102 0001:0005F70E  1104 0001:0005F714
  1109 0001:0005F834  1110 0001:0005F84D  1111 0001:0005F865  1112 0001:0005F86E
  1113 0001:0005F87D  1114 0001:0005F88C  1115 0001:0005F89B  1116 0001:0005F8AA
  1117 0001:0005F8B9  1118 0001:0005F8C3  1119 0001:0005F8C8  1120 0001:0005F8CE
  1121 0001:0005F8E3  1122 0001:0005F8E9  1123 0001:0005F8F0  1126 0001:0005FA10
  1127 0001:0005FA1B  1128 0001:0005FA2B  1129 0001:0005FA3B  1130 0001:0005FA4B
  1131 0001:0005FA5B  1132 0001:0005FA6B  1133 0001:0005FA77  1140 0001:0005FA88
  1141 0001:0005FA90  1144 0001:0005FAA7  1146 0001:0005FAC8  1147 0001:0005FAE0
  1149 0001:0005FAEE  1150 0001:0005FAFC  1152 0001:0005FB44  1154 0001:0005FB54
  1156 0001:0005FB64  1158 0001:0005FB74  1160 0001:0005FB83  1162 0001:0005FB93
  1164 0001:0005FBA1  1146 0001:0005FBA4  1168 0001:0005FBAB  1169 0001:0005FBB5
  1142 0001:0005FBC7  1173 0001:0005FBCC  1179 0001:0005FCD4  1180 0001:0005FCDA
  1181 0001:0005FCDC  1182 0001:0005FCE1  1184 0001:0005FCE5  1185 0001:0005FCF2
  1188 0001:0005FCF8  1189 0001:0005FCFB  1191 0001:0005FCFC  1193 0001:0005FD06
  1197 0001:0005FD0A  1196 0001:0005FD10  1199 0001:0005FD15  1185 0001:0005FD16
  1202 0001:0005FD19  1309 0001:0005FD20  1310 0001:0005FD21  1315 0001:0005FD23
  1316 0001:0005FD2E  1317 0001:0005FD36  1324 0001:0005FD38  1325 0001:0005FD48
  1326 0001:0005FD4D  1328 0001:0005FD57  1329 0001:0005FD5B  1332 0001:0005FDD8
  1333 0001:0005FDE8  1337 0001:0005FDFA  1338 0001:0005FE0A  1341 0001:0005FE1C
  1343 0001:0005FE31  1345 0001:0005FE46  1347 0001:0005FE58  1349 0001:0005FE6A
  1351 0001:0005FE7C  1353 0001:0005FE8E  1355 0001:0005FEA0  1357 0001:0005FEB2
  1359 0001:0005FEC4  1361 0001:0005FEC6  1362 0001:0005FECA  1363 0001:0005FED7
  1326 0001:0005FEDF  1365 0001:0005FEE9  1368 0001:0005FEF0  1369 0001:0005FEF3
  1370 0001:0005FF0B  1376 0001:0005FF10  1378 0001:0005FF19  1380 0001:0005FF24
  1381 0001:0005FF2C  1382 0001:0005FF32  1383 0001:0005FF4D  1378 0001:0005FF4E
  1387 0001:0005FF51  1392 0001:0005FF58  1395 0001:0005FF5C  1396 0001:0005FF62
  1397 0001:0005FF6C  1401 0001:0005FF70  1402 0001:0005FF76  1405 0001:0005FF78
  1406 0001:0005FF9A  1407 0001:0005FFD9  1411 0001:00060010  1412 0001:00060016
  1415 0001:00060018  1416 0001:0006001E  1417 0001:00060028  1421 0001:0006002C
  1422 0001:00060032  1431 0001:00060034  1432 0001:0006003A  1435 0001:0006003C
  1436 0001:00060042  1437 0001:0006004C  1441 0001:00060050  1442 0001:00060056
  1447 0001:00060058  1448 0001:0006006A  1449 0001:00060077  1450 0001:00060095
  1451 0001:000600A3  1453 0001:000600AE  1455 0001:000600E9  1456 0001:000600EB
  1457 0001:000600FD  1459 0001:000600FF  1451 0001:00060100  1459 0001:00060103
  1449 0001:00060107  1460 0001:0006010D  1461 0001:0006010F  1462 0001:00060117
  1467 0001:00060124  1468 0001:00060134  1469 0001:0006013D  1470 0001:00060157
  1471 0001:00060165  1472 0001:00060170  1473 0001:0006017D  1475 0001:00060189
  1476 0001:0006018B  1477 0001:0006019D  1478 0001:0006019F  1471 0001:000601A0
  1478 0001:000601A3  1469 0001:000601A7  1479 0001:000601AD  1480 0001:000601B5
  1481 0001:000601B7  1486 0001:000601C4  1487 0001:000601CF  1488 0001:000601D5
  1490 0001:000601EB  1492 0001:000601F7  1494 0001:00060209  1495 0001:0006020B
  1497 0001:0006020D  1488 0001:00060210  1498 0001:00060213  1499 0001:00060217
  1500 0001:00060219  1507 0001:00060220  1508 0001:0006022D  1509 0001:0006024C
  1510 0001:0006024E  1511 0001:00060250  1513 0001:00060255  1514 0001:00060266
  1516 0001:00060279  1517 0001:00060289  1520 0001:00060294  1524 0001:000603A0
  1526 0001:000603B5  1530 0001:000603B8  1531 0001:000603BD  1538 0001:000603C0
  1539 0001:000603C1  1540 0001:000603C8  1546 0001:000603CC  1547 0001:000603D8
  1549 0001:000603F9  1550 0001:00060400  1554 0001:0006040B  1555 0001:0006040D
  1557 0001:00060411  1562 0001:00060418  1563 0001:00060422  1564 0001:00060431
  1566 0001:00060442  1567 0001:0006044B  1572 0001:00060450  1573 0001:0006045A
  1574 0001:00060468  1583 0001:00060470  1584 0001:00060498  1585 0001:000604A2
  1587 0001:000604F7  1588 0001:00060546  1590 0001:0006054A  1591 0001:0006054D
  1592 0001:00060556  1595 0001:0006055F  1596 0001:00060570  1597 0001:00060575
  1598 0001:00060578  1593 0001:0006057B  1602 0001:00060581  1604 0001:000605AC
  1605 0001:000605CE  1607 0001:000605DE  1608 0001:000605F9  1612 0001:00060603
  1613 0001:0006060D  1615 0001:00060611  1620 0001:00060638  1621 0001:00060642
  1622 0001:00060651  1623 0001:00060660  1630 0001:00060668  1631 0001:0006066B
  1632 0001:00060672  1633 0001:00060679  1636 0001:0006067C  1637 0001:00060683
  1638 0001:00060698  1639 0001:0006069C  1640 0001:000606AF  1642 0001:000606B8
  1643 0001:000606D2  1645 0001:000606D8  1646 0001:000606DF  1647 0001:000606E5
  1650 0001:0006070A  1653 0001:00060710  1654 0001:00060713  1655 0001:0006071A
  1656 0001:00060721  1659 0001:00060724  1660 0001:00060727  1661 0001:0006072E
  1662 0001:00060741  1663 0001:00060754  1670 0001:00060758  1671 0001:00060763
  1672 0001:00060765  1673 0001:00060769  1675 0001:0006077C  1676 0001:0006078C
  1678 0001:00060793  1679 0001:000607A0  1680 0001:000607A4  1681 0001:000607B4
  1682 0001:000607B8  1685 0001:000607C9  1691 0001:000607D4  1692 0001:000607F4
  1693 0001:000607F6  1694 0001:000607FA  1695 0001:0006080A  1697 0001:00060816
  1698 0001:0006082A  1699 0001:00060838  1700 0001:00060853  1701 0001:00060857
  1703 0001:0006085E  1705 0001:00060875  1706 0001:0006087D  1709 0001:00060887
  1717 0001:000608C8  1720 0001:000608DA

Line numbers for JclTD32(JclTD32.pas) segment .itext

  1713 0002:00000AFC  1714 0002:00000B05  1716 0002:00000B14

Line numbers for JclHookExcept(JclHookExcept.pas) segment .text

   210 0001:00060AC4   211 0001:00060AD0   212 0001:00060ADC   213 0001:00060AEA
   214 0001:00060AF5   213 0001:00060B04   216 0001:00060B14   218 0001:00060B30
   219 0001:00060B41   267 0001:00060B48   268 0001:00060B4C   269 0001:00060B52
   271 0001:00060B61   272 0001:00060B67   274 0001:00060B7A   275 0001:00060B81
   276 0001:00060B8E   281 0001:00060B94   286 0001:00060B96   326 0001:00060B98
   327 0001:00060BA9   329 0001:00060BBB   331 0001:00060BC8   332 0001:00060BD4
   333 0001:00060BE1   334 0001:00060BEF   335 0001:00060BFC   336 0001:00060C0A
   338 0001:00060C13   339 0001:00060C1D   343 0001:00060C33   344 0001:00060C37
   345 0001:00060C45   346 0001:00060C4F   347 0001:00060C58   344 0001:00060C6D
   347 0001:00060C70   343 0001:00060C73   350 0001:00060C86   353 0001:00060CAF
   356 0001:00060CC3   366 0001:00060CCC   367 0001:00060CDB   372 0001:00060D05
   374 0001:00060D1D   375 0001:00060D2A   412 0001:00060D34   415 0001:00060D4F
   521 0001:00060D50   522 0001:00060D5B   523 0001:00060D63   524 0001:00060D6D
   525 0001:00060D7A   526 0001:00060D88   528 0001:00060D96   529 0001:00060DA0
   531 0001:00060DA8   532 0001:00060DAD   534 0001:00060DB9   526 0001:00060DBA
   535 0001:00060DBD   537 0001:00060DD2   539 0001:00060DEE   717 0001:00060DF8
   723 0001:00060E07   724 0001:00060E09   726 0001:00060E20   834 0001:00060E28
   839 0001:00060E3A   841 0001:00060E44   844 0001:00060E4E

Line numbers for JclHookExcept(JclHookExcept.pas) segment .itext

   823 0002:00000B18   824 0002:00000B21   826 0002:00000B32   829 0002:00000B43
   832 0002:00000B52

Line numbers for JclDebug(JCLDebug.pas) segment .text

   464 0001:000627E0   465 0001:000627E8  1061 0001:00064468  1066 0001:0006446A
  1071 0001:0006446C  1076 0001:0006446E  1081 0001:00064470  1082 0001:00064472
  1088 0001:00064475  1096 0001:00064478  1101 0001:0006447F  1155 0001:00064480
  1156 0001:00064499  1157 0001:000644A4  1158 0001:000644A7  1159 0001:000644AE
  1160 0001:000644B4  1161 0001:000644BB  1164 0001:000644DC  1165 0001:000644E6
  1167 0001:0006450A  1179 0001:00064510  1180 0001:00064519  1182 0001:0006451F
  1183 0001:00064527  1185 0001:0006452F  1186 0001:0006453B  1183 0001:0006453D
  1191 0001:00064543  1192 0001:00064552  1193 0001:00064560  1194 0001:00064571
  1195 0001:00064583  1194 0001:00064599  1197 0001:000645A9  1201 0001:000645B9
  1207 0001:000645C0  1208 0001:000645CA  1209 0001:000645CC  1210 0001:000645D5
  1212 0001:000645D9  1213 0001:000645E2  1215 0001:000645E6  1216 0001:000645F4
  1217 0001:000645F7  1218 0001:000645FA  1219 0001:00064600  1220 0001:00064606
  1222 0001:0006460C  1225 0001:00064616  1226 0001:0006461A  1227 0001:00064623
  1230 0001:0006462C  1231 0001:00064632  1232 0001:0006463B  1238 0001:00064640
  1239 0001:00064649  1240 0001:0006464E  1242 0001:00064659  1243 0001:00064662
  1245 0001:0006466E  1246 0001:00064671  1248 0001:00064673  1240 0001:00064674
  1249 0001:00064677  1250 0001:00064683  1251 0001:00064691  1257 0001:0006469C
  1258 0001:000646A1  1259 0001:000646B0  1262 0001:000646B4  1263 0001:000646BA
  1264 0001:000646C8  1269 0001:000646CC  1270 0001:000646E4  1271 0001:000646ED
  1272 0001:000646F3  1273 0001:000646FE  1274 0001:00064711  1277 0001:00064730
  1278 0001:00064747  1279 0001:00064752  1282 0001:00064770  1283 0001:0006477B
  1284 0001:0006478B  1285 0001:00064797  1288 0001:000647A8  1289 0001:000647AE
  1290 0001:000647BB  1295 0001:000647C0  1296 0001:000647C8  1298 0001:000647CC
  1299 0001:000647D5  1301 0001:000647D7  1303 0001:000647DB  1302 0001:000647DC
  1304 0001:000647F0  1307 0001:000647F7  1306 0001:000647F8  1309 0001:00064803
  1308 0001:00064804  1311 0001:00064810  1312 0001:0006481D  1317 0001:00064824
  1318 0001:0006482C  1320 0001:00064830  1321 0001:00064839  1323 0001:0006483E
  1325 0001:00064842  1324 0001:00064843  1326 0001:00064857  1329 0001:0006485E
  1328 0001:0006485F  1331 0001:0006486A  1330 0001:0006486B  1333 0001:00064877
  1335 0001:0006487B  1334 0001:0006487C  1336 0001:0006488A  1338 0001:000648B4
  1339 0001:000648B6  1341 0001:000648BA  1340 0001:000648BB  1342 0001:000648C9
  1343 0001:000648CD  1345 0001:000648D2  1346 0001:000648D4  1347 0001:000648E0
  1353 0001:000648F8  1354 0001:00064900  1356 0001:00064904  1357 0001:0006490E
  1359 0001:00064910  1361 0001:00064915  1362 0001:00064916  1364 0001:0006491A
  1363 0001:0006491B  1368 0001:00064931  1369 0001:00064933  1371 0001:00064939
  1370 0001:0006493A  1374 0001:00064950  1373 0001:00064951  1376 0001:00064965
  1377 0001:00064973  1396 0001:00064B40  1397 0001:00064B43  1398 0001:00064B52
  1401 0001:00064B54  1403 0001:00064B60  1402 0001:00064B62  1404 0001:00064B7E
  1407 0001:00064B84  1409 0001:00064B90  1408 0001:00064B92  1410 0001:00064BAE
  1411 0001:00064BB8  1414 0001:00064BBC  1415 0001:00064BBF  1416 0001:00064BD8
  1421 0001:00064BDC  1422 0001:00064BEE  1424 0001:00064BF2  1423 0001:00064BF4
  1425 0001:00064C09  1426 0001:00064C17  1430 0001:00064C20  1431 0001:00064C2B
  1434 0001:00064C2F  1435 0001:00064C42  1432 0001:00064C44  1437 0001:00064C52
  1442 0001:00064C58  1443 0001:00064C62  1445 0001:00064C64  1446 0001:00064C69
  1448 0001:00064C92  1450 0001:00064C9F  1452 0001:00064CAF  1455 0001:00064CBF
  1456 0001:00064CC1  1461 0001:00064CC3  1462 0001:00064CC5  1463 0001:00064CC7
  1466 0001:00064CCC  1467 0001:00064CD2  1468 0001:00064CDF  1470 0001:00064CEA
  1471 0001:00064CF0  1474 0001:00064D00  1475 0001:00064D05  1478 0001:00064D08
  1479 0001:00064D13  1480 0001:00064D1D  1482 0001:00064D21  1481 0001:00064D23
  1483 0001:00064D31  1486 0001:00064D38  1488 0001:00064D43  1487 0001:00064D45
  1489 0001:00064D53  1490 0001:00064D56  1496 0001:00064D58  1497 0001:00064D7D
  1500 0001:00064D83  1501 0001:00064D9B  1502 0001:00064D9D  1503 0001:00064D9F
  1506 0001:00064DA3  1507 0001:00064DB3  1509 0001:00064DB7  1510 0001:00064DB9
  1512 0001:00064DBB  1513 0001:00064DBD  1504 0001:00064DBE  1515 0001:00064DC5
  1516 0001:00064DCB  1518 0001:00064DD1  1498 0001:00064DDB  1520 0001:00064DE9
  1521 0001:00064DF7  1522 0001:00064E01  1529 0001:00064E34  1530 0001:00064E5A
  1532 0001:00064E68  1533 0001:00064E6C  1535 0001:00064E71  1536 0001:00064E7B
  1537 0001:00064EA3  1540 0001:00064EAB  1541 0001:00064EAC  1538 0001:00064EAD
  1543 0001:00064EC9  1544 0001:00064EFE  1545 0001:00064F0D  1546 0001:00064F13
  1547 0001:00064F19  1548 0001:00064F23  1550 0001:00064F50  1551 0001:00064F5A
  1553 0001:00064F64  1558 0001:00064F68  1559 0001:00064F71  1560 0001:00064F7E
  1563 0001:00064F95  1564 0001:00064FAD  1565 0001:00064FB4  1566 0001:00064FBD
  1567 0001:00064FC7  1568 0001:00064FD1  1569 0001:00064FD8  1561 0001:00064FEB
  1571 0001:00064FF6  1574 0001:0006500D  1575 0001:00065025  1576 0001:0006502C
  1577 0001:00065035  1578 0001:0006503E  1579 0001:00065048  1580 0001:00065051
  1581 0001:0006505B  1582 0001:00065062  1572 0001:00065076  1584 0001:00065081
  1587 0001:00065098  1588 0001:000650B0  1589 0001:000650BA  1590 0001:000650C1
  1585 0001:000650CE  1592 0001:000650D9  1595 0001:000650F4  1596 0001:0006510C
  1597 0001:00065116  1598 0001:0006511D  1593 0001:0006512A  1602 0001:00065146
  1603 0001:0006514C  1605 0001:00065154  1604 0001:00065157  1606 0001:0006515F
  1607 0001:00065166  1609 0001:00065173  1610 0001:0006517A  1611 0001:00065183
  1612 0001:0006518A  1613 0001:000651A2  1614 0001:000651A9  1623 0001:000651B5
  1600 0001:000651C0  1626 0001:000651D4  1675 0001:000651DC  1676 0001:000651F1
  1677 0001:000651FE  1678 0001:00065205  1681 0001:00065224  1687 0001:0006522A
  1690 0001:00065247  1693 0001:00065255  1694 0001:00065257  1698 0001:0006525C
  1699 0001:00065265  1700 0001:0006526E  1702 0001:00065273  1703 0001:0006527F
  1705 0001:00065288  1709 0001:0006528C  1710 0001:00065295  1711 0001:0006529E
  1713 0001:000652A3  1714 0001:000652AF  1716 0001:000652B8  1720 0001:000652BC
  1721 0001:000652CD  1722 0001:000652D6  1724 0001:000652DB  1725 0001:000652EA
  1727 0001:000652F3  1734 0001:000652FC  1735 0001:00065323  1736 0001:0006532D
  1737 0001:00065347  1738 0001:00065357  1739 0001:00065364  1741 0001:00065371
  1742 0001:00065387  1744 0001:00065397  1745 0001:000653AC  1746 0001:000653B6
  1747 0001:000653C0  1749 0001:000653CA  1752 0001:000653D0  1753 0001:000653EB
  1755 0001:000653EF  1757 0001:0006540A  1759 0001:0006540E  1760 0001:0006541B
  1763 0001:00065425  1768 0001:00065454  1769 0001:00065455  1770 0001:0006545C
  1774 0001:00065460  1775 0001:00065465  1781 0001:00065468  1782 0001:00065475
  1783 0001:00065481  1784 0001:00065487  1785 0001:0006548B  1786 0001:000654A0
  1788 0001:000654B1  1789 0001:000654BF  1791 0001:000654CB  1798 0001:000654D8
  1799 0001:000654E6  1800 0001:000654EB  1801 0001:00065502  1804 0001:00065526
  1805 0001:00065540  1807 0001:00065549  1813 0001:0006555E  1815 0001:00065569
  1816 0001:00065580  1817 0001:0006559D  1818 0001:000655B1  1819 0001:000655C2
  1820 0001:000655D2  1821 0001:000655D5  1822 0001:000655DA  1824 0001:000655E0
  1825 0001:000655EA  1826 0001:00065604  1827 0001:00065618  1828 0001:00065623
  1829 0001:0006562D  1831 0001:00065632  1832 0001:00065634  1800 0001:00065635
  1833 0001:0006563F  1834 0001:00065646  1835 0001:00065649  1839 0001:00065658
  1840 0001:0006565B  1845 0001:0006565C  1846 0001:00065668  1847 0001:00065672
  1848 0001:00065682  1850 0001:00065697  1851 0001:000656A8  1852 0001:000656AA
  1847 0001:000656AB  1853 0001:000656B0  1858 0001:000656B8  1859 0001:000656BF
  1860 0001:000656C2  1861 0001:000656D0  1863 0001:000656E5  1864 0001:000656EF
  1865 0001:000656F1  1860 0001:000656F2  1866 0001:000656F7  1871 0001:00065700
  1872 0001:0006570A  1873 0001:00065718  1877 0001:00065720  1878 0001:00065725
  1884 0001:00065728  1885 0001:00065739  1886 0001:00065745  1887 0001:0006574F
  1888 0001:00065756  1889 0001:00065770  1891 0001:00065782  1892 0001:0006579A
  1894 0001:000657A9  1899 0001:000657B4  1904 0001:000657B8  1905 0001:000657C4
  1906 0001:000657D7  1909 0001:000657FB  1910 0001:00065810  1911 0001:0006582F
  1912 0001:00065842  1913 0001:0006585C  1915 0001:0006586D  1916 0001:0006588A
  1917 0001:00065899  1918 0001:0006589C  1919 0001:0006589E  1905 0001:0006589F
  1920 0001:000658A6  1924 0001:000658B0  1925 0001:000658B6  1929 0001:000658B8
  1930 0001:000658BE  1934 0001:000658C0  1935 0001:000658C6  1938 0001:000658C8
  1939 0001:000658CB  1940 0001:000658D0  1941 0001:000658D5  1942 0001:000658DA
  1943 0001:000658E1  1944 0001:000658FB  1945 0001:00065915  1946 0001:0006592F
  1947 0001:00065941  1948 0001:00065953  1949 0001:00065965  1950 0001:00065977
  1957 0001:0006597C  1958 0001:0006598D  1959 0001:000659A0  1962 0001:000659C9
  1963 0001:000659E3  1965 0001:000659EE  1966 0001:00065A05  1967 0001:00065A18
  1968 0001:00065A35  1969 0001:00065A49  1970 0001:00065A59  1971 0001:00065A6C
  1972 0001:00065A7C  1973 0001:00065A7F  1974 0001:00065A81  1958 0001:00065A82
  1975 0001:00065A89  1981 0001:00065A98  1983 0001:00065AA4  1984 0001:00065AB0
  1985 0001:00065AB9  1986 0001:00065AD0  1987 0001:00065AE2  1988 0001:00065AF7
  1991 0001:00065AFD  1992 0001:00065B0D  1994 0001:00065B28  1995 0001:00065B38
  1996 0001:00065B3A  1991 0001:00065B3B  1998 0001:00065B40  2019 0001:00065B48
  2020 0001:00065B69  2021 0001:00065B9B  2022 0001:00065B9D  2024 0001:00065BD0
  2025 0001:00065BD8  2026 0001:00065BDC  2027 0001:00065BDE  2028 0001:00065BE0
  2029 0001:00065BE1  2022 0001:00065BE2  2030 0001:00065BE5  2038 0001:00065C08
  2039 0001:00065C46  2040 0001:00065C50  2042 0001:00065C52  2045 0001:00065C5F
  2046 0001:00065C60  2047 0001:00065CB3  2051 0001:00065CB8  2052 0001:00065CB9
  2053 0001:00065CC1  2056 0001:00065CC2  2057 0001:00065CC4  2059 0001:00065CC6
  2061 0001:00065CDA  2064 0001:00065CE1  2065 0001:00065CE9  2066 0001:00065CEA
  2070 0001:00065CF8  2071 0001:00065D00  2072 0001:00065D01  2076 0001:00065D0E
  2077 0001:00065D16  2080 0001:00065D17  2084 0001:00065D3C  2086 0001:00065D40
  2088 0001:00065D44  2090 0001:00065D48  2092 0001:00065D4A  2093 0001:00065D51
  2094 0001:00065D52  2095 0001:00065D53  2096 0001:00065D5F  2097 0001:00065D67
  2098 0001:00065DA3  2583 0001:00065DF4  2584 0001:00065E0C  2585 0001:00065E15
  2586 0001:00065E1C  2587 0001:00065E1F  2588 0001:00065E26  2595 0001:00065E44
  2596 0001:00065E4D  2598 0001:00065E57  2599 0001:00065E59  2600 0001:00065E5F
  2601 0001:00065E61  2602 0001:00065E63  2603 0001:00065E76  2606 0001:00065E7E
  2607 0001:00065E86  2608 0001:00065E93  2609 0001:00065E97  2611 0001:00065E9B
  2612 0001:00065EA0  2614 0001:00065EA7  2615 0001:00065EB5  2617 0001:00065ECC
  2618 0001:00065EDA  2619 0001:00065EE4  2604 0001:00065EE5  2621 0001:00065EF6
  2623 0001:00065F0D  2630 0001:00065F18  2631 0001:00065F21  2633 0001:00065F2B
  2634 0001:00065F31  2635 0001:00065F37  2636 0001:00065F3D  2637 0001:00065F3F
  2638 0001:00065F41  2639 0001:00065F54  2642 0001:00065F5F  2643 0001:00065F67
  2644 0001:00065F74  2645 0001:00065F7C  2646 0001:00065F89  2647 0001:00065F91
  2649 0001:00065F95  2650 0001:00065F9A  2652 0001:00065FA1  2653 0001:00065FAF
  2655 0001:00065FC6  2656 0001:00065FD3  2657 0001:00065FDE  2658 0001:00065FE9
  2640 0001:00065FEA  2660 0001:00065FFF  2662 0001:00066016  2671 0001:00066020
  2672 0001:00066026  2673 0001:0006602C  2674 0001:0006602E  2677 0001:00066078
  2679 0001:00066084  2680 0001:00066089  2681 0001:00066092  2683 0001:00066096
  2684 0001:00066098  2681 0001:0006609B  2686 0001:0006609F  2687 0001:000660AB
  2689 0001:000660B4  2698 0001:000660BC  2699 0001:000660C0  2700 0001:000660C4
  2703 0001:000660D0  2704 0001:000660DF  2706 0001:000660E8  2709 0001:000660EC
  2710 0001:000660F2  2711 0001:00066104  2714 0001:00066108  2715 0001:0006612A
  2716 0001:0006615C  2721 0001:00066188  2722 0001:00066189  2723 0001:00066190
  2730 0001:00066194  2731 0001:000661A2  2732 0001:000661AF  2733 0001:000661B1
  2734 0001:000661B8  2736 0001:000661BE  2737 0001:000661C5  2738 0001:000661DB
  2740 0001:000661ED  2742 0001:000661F7  2743 0001:000661FE  2745 0001:00066211
  2746 0001:00066213  2737 0001:00066217  2750 0001:00066220  2751 0001:00066234
  2752 0001:00066236  2755 0001:0006623E  2756 0001:00066244  2758 0001:00066248
  2760 0001:00066252  2761 0001:00066254  2763 0001:0006625B  2767 0001:0006625D
  2768 0001:00066261  2769 0001:00066270  2770 0001:00066274  2753 0001:0006627D
  2774 0001:00066290  2775 0001:00066292  2779 0001:0006629C  2780 0001:000662A4
  2787 0001:000662A8  2788 0001:000662B6  2789 0001:000662CA  2790 0001:000662CC
  2791 0001:000662CE  2794 0001:000662D6  2795 0001:000662DC  2799 0001:000662E0
  2800 0001:000662EF  2792 0001:000662F3  2803 0001:00066306  2804 0001:00066312
  2811 0001:0006631C  2812 0001:00066327  2813 0001:0006633B  2814 0001:0006633D
  2815 0001:00066340  2818 0001:00066347  2819 0001:0006634C  2823 0001:00066350
  2824 0001:0006635D  2816 0001:0006635F  2827 0001:00066370  2828 0001:00066372
  2833 0001:0006637C  2834 0001:00066386  2835 0001:00066394  2842 0001:0006639C
  2843 0001:000663BF  2844 0001:000663CB  2845 0001:000663D0  2846 0001:000663D5
  2847 0001:000663DC  2849 0001:000663E2  2850 0001:000663E9  2851 0001:000663FE
  2853 0001:0006640E  2855 0001:00066417  2856 0001:00066421  2857 0001:0006642B
  2859 0001:0006643C  2860 0001:00066441  2850 0001:00066444  2864 0001:0006644F
  2865 0001:00066462  2866 0001:00066464  2869 0001:0006646B  2870 0001:00066470
  2872 0001:00066474  2874 0001:0006647C  2875 0001:00066481  2876 0001:00066486
  2878 0001:0006648D  2882 0001:0006648F  2883 0001:00066492  2884 0001:0006649F
  2885 0001:000664A5  2886 0001:000664B2  2887 0001:000664B8  2867 0001:000664C1
  2891 0001:000664D2  2893 0001:000664D8  2894 0001:000664E5  2895 0001:000664EB
  2898 0001:00066514  2899 0001:0006651E  2906 0001:00066554  2907 0001:0006655A
  2908 0001:0006655C  2910 0001:0006655E  2911 0001:00066563  2912 0001:00066565
  2913 0001:00066573  2914 0001:00066576  2915 0001:0006657A  2916 0001:0006657C
  2917 0001:00066585  2925 0001:0006658C  2926 0001:0006659A  2927 0001:000665A7
  2928 0001:000665BB  2929 0001:000665C1  2930 0001:000665C3  2931 0001:000665C5
  2932 0001:000665CA  2935 0001:000665D2  2936 0001:000665D8  2938 0001:000665DC
  2939 0001:000665E2  2941 0001:000665EA  2942 0001:000665EF  2946 0001:000665F1
  2947 0001:000665F3  2948 0001:00066602  2933 0001:0006660A  2951 0001:0006661D
  2952 0001:00066624  2954 0001:00066634  2955 0001:0006663E  3252 0001:00066648
  3253 0001:00066654  3254 0001:00066657  3257 0001:0006666C  3258 0001:00066672
  3259 0001:0006667C  3263 0001:00066680  3264 0001:0006668B  3275 0001:0006668C
  3276 0001:00066695  3277 0001:000666A6  3282 0001:000666A8  3283 0001:000666B4
  3285 0001:000666BB  3286 0001:000666C0  3288 0001:000666D0  3289 0001:000666E7
  3290 0001:000666F5  3291 0001:00066701  3293 0001:0006670B  3295 0001:00066727
  3296 0001:0006672F  3298 0001:00066739  3286 0001:0006673A  3299 0001:0006673D
  3305 0001:00066748  3306 0001:00066751  3307 0001:00066756  3309 0001:0006675A
  3311 0001:00066765  3312 0001:0006676E  3314 0001:00066773  3315 0001:00066776
  3317 0001:00066778  3309 0001:00066779  3318 0001:0006677C  3320 0001:00066782
  3321 0001:0006678E  3322 0001:00066794  3324 0001:0006679E  3327 0001:000667A8
  3328 0001:000667AE  3329 0001:000667B7  3334 0001:000667BC  3335 0001:000667D9
  3336 0001:000667F1  3337 0001:00066803  3338 0001:00066807  3340 0001:00066822
  3341 0001:00066824  3345 0001:0006682C  3347 0001:00066835  3349 0001:00066846
  3352 0001:00066856  3355 0001:00066866  3358 0001:00066876  3361 0001:00066886
  3364 0001:00066896  3368 0001:00066898  3369 0001:0006689B  3371 0001:000668A0
  3372 0001:000668AC  3376 0001:000668B0  3377 0001:000668B3  3379 0001:000668B8
  3380 0001:000668C6  3385 0001:000668C8  3386 0001:000668D1  3387 0001:000668DD
  3392 0001:000668E0  3393 0001:000668EB  3394 0001:000668FB  3395 0001:00066907
  3400 0001:00066918  3401 0001:00066950  3402 0001:0006695B  3404 0001:0006695E
  3405 0001:00066978  3406 0001:00066983  3408 0001:00066989  3409 0001:00066991
  3410 0001:000669B2  3411 0001:000669C7  3412 0001:000669E1  3413 0001:000669E7
  3416 0001:000669FF  3421 0001:00066A34  3422 0001:00066A4D  3423 0001:00066A67
  3424 0001:00066A71  3425 0001:00066A75  3426 0001:00066A8B  3431 0001:00066AD0
  3432 0001:00066ADB  3433 0001:00066AEB  3434 0001:00066AFB  3435 0001:00066B07
  3440 0001:00066B18  3441 0001:00066B50  3442 0001:00066B5B  3444 0001:00066B5E
  3445 0001:00066B78  3446 0001:00066B83  3448 0001:00066B89  3449 0001:00066B91
  3450 0001:00066BB2  3451 0001:00066BC7  3452 0001:00066BE1  3453 0001:00066BE7
  3456 0001:00066BFF  3462 0001:00066C34  3463 0001:00066C4F  3464 0001:00066C53
  3465 0001:00066C65  3466 0001:00066C69  3469 0001:00066C82  3470 0001:00066C9C
  3471 0001:00066CA6  3473 0001:00066CAA  3474 0001:00066CBE  3477 0001:00066CC2
  3479 0001:00066CC6  3480 0001:00066CDA  3483 0001:00066D08  3488 0001:00066D74
  3489 0001:00066D7F  3490 0001:00066D8F  3491 0001:00066D9B  3494 0001:00066DAC
  3495 0001:00066DB3  3496 0001:00066DB6  3500 0001:00066DBD  3503 0001:00066DCD
  3508 0001:00066DFE  3513 0001:00066E27  3518 0001:00066E50  3523 0001:00066E79
  3498 0001:00066E7A  3525 0001:00066E82  3526 0001:00066E84  3535 0001:00066E8C
  3536 0001:00066EC7  3537 0001:00066ECB  3539 0001:00066ED4  3544 0001:00066EE0
  3545 0001:00066EE8  3546 0001:00066EF0  3547 0001:00066F08  3549 0001:00066F12
  3550 0001:00066F1D  3551 0001:00066F2A  3553 0001:00066F3F  3555 0001:00066F45
  3556 0001:00066F5C  3557 0001:00066F71  3561 0001:00066F7A  3564 0001:00066FAD
  3565 0001:00066FC7  3567 0001:00066FD1  3568 0001:00067017  3569 0001:0006701D
  3570 0001:00067033  3572 0001:00067048  3576 0001:0006704E  3577 0001:00067065
  3578 0001:0006707A  3582 0001:0006707E  3584 0001:00067084  3585 0001:0006708C
  3588 0001:00067092  3591 0001:000670AF  3594 0001:000670EA  3596 0001:000670EC
  3550 0001:000670ED  3598 0001:000670F6  3601 0001:00067144  3603 0001:00067148
  3608 0001:0006715B  3609 0001:00067165  3610 0001:00067186  3617 0001:0006718C
  3618 0001:00067197  3619 0001:000671A7  3620 0001:000671B3  3625 0001:000671C4
  3626 0001:000671FA  3627 0001:00067205  3628 0001:00067226  3629 0001:00067230
  3632 0001:00067238  3633 0001:00067240  3634 0001:00067268  3635 0001:00067284
  3636 0001:000672A5  3637 0001:000672AB  3639 0001:000672C3  3642 0001:000672F8
  3643 0001:00067300  3644 0001:00067313  3645 0001:00067321  3646 0001:0006732B
  3648 0001:00067344  3650 0001:0006734B  3715 0001:00067354  3716 0001:00067378
  3717 0001:00067387  3718 0001:00067395  3719 0001:000673A6  3720 0001:000673B8
  3721 0001:000673D6  3719 0001:000673E3  3722 0001:000673E6  3724 0001:00067406
  3726 0001:00067416  3733 0001:00067450  3734 0001:00067471  3735 0001:00067478
  3737 0001:00067485  3738 0001:0006748E  3740 0001:00067497  3742 0001:0006749F
  3744 0001:000674AC  3745 0001:000674BF  3747 0001:000674F0  3748 0001:0006750E
  3749 0001:00067544  3750 0001:00067562  3754 0001:00067598  3758 0001:000675B0
  3760 0001:000675B8  3762 0001:000675C2  3765 0001:000675CB  3768 0001:000675D2
  3769 0001:000675DB  3771 0001:00067602  3772 0001:0006760B  3774 0001:00067637
  3776 0001:00067639  3778 0001:0006763D  3780 0001:00067653  3781 0001:00067658
  3784 0001:0006765F  3787 0001:00067667  3789 0001:0006766E  3792 0001:00067724
  3793 0001:00067728  3795 0001:0006772A  3796 0001:00067733  3798 0001:00067745
  3799 0001:0006774C  3814 0001:00067754  3815 0001:00067793  3817 0001:0006779B
  3819 0001:000677A8  3820 0001:000677B5  3821 0001:000677C3  3822 0001:000677D2
  3823 0001:000677DB  3824 0001:000677E5  3826 0001:000677EA  3827 0001:00067809
  3829 0001:0006780F  3830 0001:00067815  3831 0001:0006781D  3832 0001:00067835
  3833 0001:0006783E  3836 0001:00067883  3840 0001:00067893  3842 0001:000678A0
  3843 0001:000678AD  3844 0001:000678BB  3845 0001:000678CA  3846 0001:000678D3
  3847 0001:000678DD  3849 0001:000678E2  3850 0001:00067901  3852 0001:00067907
  3853 0001:0006790D  3854 0001:00067915  3855 0001:0006792D  3856 0001:00067936
  3859 0001:0006797D  3863 0001:0006798D  3866 0001:00067991  3868 0001:000679A0
  3869 0001:000679AF  3870 0001:000679B6  3872 0001:000679BB  3874 0001:000679D9
  3875 0001:000679E2  3876 0001:000679F0  3880 0001:000679FB  3882 0001:00067A0A
  3883 0001:00067A19  3884 0001:00067A20  3886 0001:00067A25  3888 0001:00067A3F
  3889 0001:00067A48  3890 0001:00067A56  3893 0001:00067A5F  3901 0001:00067AB0
  3902 0001:00067ADD  3903 0001:00067AE6  3905 0001:00067AEE  3907 0001:00067AF8
  3910 0001:00067B01  3912 0001:00067B08  3914 0001:00067B15  3915 0001:00067B27
  3916 0001:00067B31  3917 0001:00067B49  3920 0001:00067B4D  3921 0001:00067B58
  3922 0001:00067B6A  3925 0001:00067B74  3928 0001:00067BC2  3932 0001:00067BEB
  3934 0001:00067BF8  3935 0001:00067C0A  3936 0001:00067C14  3937 0001:00067C2C
  3940 0001:00067C30  3941 0001:00067C3B  3942 0001:00067C4D  3945 0001:00067C57
  3948 0001:00067CA5  3952 0001:00067CCB  3954 0001:00067CCD  3957 0001:00067D04
  3958 0001:00067D0A  3960 0001:00067D1B  3962 0001:00067D24  3963 0001:00067D36
  3964 0001:00067D48  3965 0001:00067D5A  3966 0001:00067D6C  3967 0001:00067D7E
  3968 0001:00067D90  3969 0001:00067DA2  3970 0001:00067DB4  3971 0001:00067DC6
  3972 0001:00067DD8  3973 0001:00067DEA  3977 0001:00067DFC  3983 0001:00067E61
  3986 0001:00068018  3987 0001:00068019  3989 0001:00068023  3990 0001:00068027
  3992 0001:00068032  3994 0001:00068039  3995 0001:00068040  3996 0001:00068047
  3997 0001:0006804E  3998 0001:00068055  3999 0001:0006805C  4000 0001:00068063
  4001 0001:0006806A  4002 0001:00068071  4003 0001:00068078  4004 0001:0006807F
  4005 0001:00068086  4006 0001:0006808D  4054 0001:00068094  4055 0001:000680A2
  4056 0001:000680B0  4057 0001:000680BA  4058 0001:000680C8  4059 0001:000680CD
  4061 0001:000680F6  4064 0001:00068117  4065 0001:00068125  4067 0001:00068142
  4070 0001:0006814C  4071 0001:00068168  4072 0001:00068176  4073 0001:00068180
  4074 0001:0006818E  4075 0001:00068193  4077 0001:000681BF  4080 0001:000681E0
  4082 0001:000681E9  4090 0001:000681F4  4091 0001:00068258  4092 0001:00068262
  4095 0001:00068281  4096 0001:0006828C  4097 0001:000682AA  4099 0001:00068322
  4101 0001:0006832C  4103 0001:00068357  4105 0001:00068379  4106 0001:00068383
  4108 0001:00068389  4109 0001:0006838F  4111 0001:000683AE  4113 0001:000683CD
  4118 0001:0006844C  4119 0001:00068452  4120 0001:0006846F  4121 0001:00068475
  4123 0001:000684CA  4128 0001:0006850F  4129 0001:00068526  4131 0001:00068528
  4133 0001:00068534  4134 0001:0006853E  4136 0001:00068542  4137 0001:00068565
  4139 0001:00068571  4140 0001:00068577  4142 0001:000685CB  4309 0001:00068764
  4310 0001:00068776  4311 0001:00068781  4312 0001:00068789  4313 0001:00068792
  4316 0001:000687AC  4317 0001:000687B7  4318 0001:000687BE  4319 0001:000687C6
  4320 0001:000687D2  4349 0001:00068A40  4350 0001:00068A52  4351 0001:00068A5C
  4353 0001:00068A6C  4352 0001:00068A7A  4355 0001:00068A8D  4357 0001:00068AA7
  4358 0001:00068AB6  4363 0001:00068ACC  4364 0001:00068ADA  4365 0001:00068AE7
  4366 0001:00068AF1  4367 0001:00068AFF  4368 0001:00068B12  4370 0001:00068B16
  4371 0001:00068B21  4373 0001:00068B28  4375 0001:00068B3E  4377 0001:00068B58
  4380 0001:00068B60  4381 0001:00068B6A  4382 0001:00068B74  4384 0001:00068B84
  4383 0001:00068B92  4389 0001:00068B98  4391 0001:00068BAC  4393 0001:00068BC6
  4399 0001:00068BCC  4400 0001:00068BDE  4401 0001:00068BE3  4402 0001:00068BEE
  4403 0001:00068BFC  4404 0001:00068C14  4405 0001:00068C1D  4407 0001:00068C2B
  4408 0001:00068C37  4410 0001:00068C4D  4411 0001:00068C50  4413 0001:00068C52
  4405 0001:00068C53  4415 0001:00068C63  4417 0001:00068C7D  4430 0001:00068C88
  4431 0001:00068C94  4432 0001:00068C9C  4433 0001:00068CAA  4435 0001:00068CC0
  4437 0001:00068CDA  4440 0001:00068CE0  4441 0001:00068CEC  4442 0001:00068CF4
  4443 0001:00068D02  4445 0001:00068D11  4446 0001:00068D18  4449 0001:00068D20
  4451 0001:00068D34  4453 0001:00068D4E  4456 0001:00068D54  4457 0001:00068D5D
  4458 0001:00068D65  4459 0001:00068D73  4461 0001:00068D87  4463 0001:00068DA1
  4487 0001:00069030  4488 0001:00069042  4489 0001:00069051  4492 0001:0006906C
  4493 0001:00069077  4494 0001:00069087  4495 0001:00069097  4496 0001:000690A7
  4497 0001:000690B3  4502 0001:000690C4  4503 0001:000690D1  4504 0001:000690DC
  4505 0001:000690E2  4506 0001:000690ED  4507 0001:000690FB  4509 0001:00069104
  4510 0001:00069118  4511 0001:00069121  4513 0001:0006912B  4515 0001:00069145
  4516 0001:0006914B  4518 0001:0006915E  4526 0001:00069164  4527 0001:00069183
  4528 0001:0006918E  4529 0001:00069194  4530 0001:0006919F  4531 0001:000691AD
  4533 0001:000691BB  4534 0001:000691C8  4536 0001:000691DA  4537 0001:000691F8
  4538 0001:0006920C  4537 0001:00069220  4539 0001:00069223  4540 0001:0006922D
  4542 0001:0006923E  4543 0001:0006925E  4545 0001:00069270  4546 0001:0006927C
  4540 0001:0006927D  4547 0001:00069280  4548 0001:00069289  4551 0001:00069294
  4553 0001:000692A4  4554 0001:000692AA  4556 0001:000692BD  4561 0001:000692E4
  4562 0001:000692F0  4564 0001:000692FA  4565 0001:00069305  4566 0001:0006930B
  4567 0001:00069316  4568 0001:00069324  4570 0001:0006933C  4571 0001:00069342
  4574 0001:00069355  4579 0001:0006935C  4580 0001:00069368  4581 0001:00069373
  4582 0001:00069381  4584 0001:0006939B  4586 0001:000693AE  4599 0001:000693B8
  4600 0001:000693C1  4602 0001:000693C8  4603 0001:000693CE  4608 0001:000693D0
  4609 0001:000693D7  4610 0001:000693DA  4611 0001:000693DE  4613 0001:000693E7
  4616 0001:000693EC  4617 0001:000693FE  4619 0001:00069415  4620 0001:00069417
  4621 0001:00069419  4616 0001:0006941A  4622 0001:0006941D  4623 0001:00069422
  4624 0001:0006942C  4623 0001:00069436  4626 0001:00069439  4637 0001:00069440
  4638 0001:0006944F  4639 0001:0006945C  4640 0001:00069469  4642 0001:0006946D
  4643 0001:00069474  4646 0001:0006947B  4647 0001:0006947E  4649 0001:00069484
  4650 0001:00069489  4652 0001:0006948D  4653 0001:0006948E  4656 0001:00069490
  4657 0001:00069492  4658 0001:000694AE  4715 0001:000694B8  4716 0001:000694BC
  4717 0001:000694DB  4718 0001:000694E7  4798 0001:000694F0  4799 0001:000694F3
  4802 0001:000694F4  4803 0001:000694FA  4804 0001:0006950D  4810 0001:00069510
  4811 0001:00069525  4812 0001:0006953C  4816 0001:0006955C  4817 0001:00069571
  4818 0001:0006958B  4822 0001:000695A8  4823 0001:000695BD  4824 0001:000695D9
  4830 0001:000695F8  4831 0001:00069619  4832 0001:00069622  4833 0001:00069628
  4834 0001:0006962F  4835 0001:00069636  4836 0001:00069639  4837 0001:00069647
  4839 0001:0006964A  4840 0001:00069650  4842 0001:0006965A  4844 0001:00069660
  4845 0001:0006966D  4847 0001:00069671  4848 0001:0006967D  4849 0001:00069680
  4851 0001:00069689  4852 0001:0006968F  4854 0001:00069698  4855 0001:0006969E
  4857 0001:000696A7  4858 0001:000696AE  4861 0001:000696D0  4862 0001:000696DE
  4863 0001:000696E5  4864 0001:000696EA  4865 0001:000696F7  4866 0001:00069703
  4869 0001:00069714  4870 0001:0006971B  4872 0001:00069736  4873 0001:0006973D
  4874 0001:0006974B  4875 0001:00069754  4877 0001:0006975E  4878 0001:00069766
  4879 0001:0006976F  4881 0001:0006978B  4882 0001:00069792  4885 0001:000697A1
  4888 0001:000697A4  4889 0001:000697AA  4890 0001:000697B1  4891 0001:000697B4
  4895 0001:000697B8  4896 0001:000697BC  4897 0001:000697BF  4903 0001:000697C0
  4904 0001:000697E4  4905 0001:000697EC  4906 0001:000697F4  4907 0001:00069802
  4908 0001:00069814  4909 0001:00069849  4907 0001:0006984A  4911 0001:0006985A
  4913 0001:0006986A  4916 0001:00069890  4917 0001:00069899  4918 0001:000698A0
  4919 0001:000698A9  4926 0001:000698B0  4930 0001:000698C0  4934 0001:000698CB
  4935 0001:000698D2  4937 0001:000698DB  4941 0001:000698DE  4942 0001:000698E6
  4944 0001:0006990D  4945 0001:00069913  4946 0001:0006991B  4948 0001:00069926
  4949 0001:00069932  4956 0001:00069938  4957 0001:00069949  4959 0001:00069956
  4961 0001:0006995E  4963 0001:00069962  4964 0001:0006996C  4965 0001:0006997E
  4968 0001:00069986  4969 0001:00069992  4970 0001:00069996  4973 0001:00069998
  4931 0001:000699B0  4975 0001:000699C1  4976 0001:000699C5  4981 0001:000699D0
  4982 0001:000699DA  4985 0001:000699F0  4986 0001:000699FC  4987 0001:00069A06
  4989 0001:00069A0F  4995 0001:00069A14  4996 0001:00069A1D  4999 0001:00069A29
  5000 0001:00069A2E  5001 0001:00069A33  5003 0001:00069A39  5007 0001:00069A41
  5008 0001:00069A47  5010 0001:00069A4F  5016 0001:00069A55  5019 0001:00069A5E
  5018 0001:00069A68  5020 0001:00069A82  5075 0001:00069A88  5076 0001:00069A93
  5078 0001:00069A9F  5080 0001:00069AA5  5082 0001:00069AB0  5087 0001:00069AB4
  5088 0001:00069ABA  5090 0001:00069AC2  5093 0001:00069AC5  5095 0001:00069ACB
  5096 0001:00069AD6  5100 0001:00069AE3  5102 0001:00069AF0  5107 0001:00069AF4
  5110 0001:00069B08  5112 0001:00069B10  5114 0001:00069B12  5116 0001:00069B15
  5120 0001:00069B1F  5104 0001:00069B22  5122 0001:00069B30  5124 0001:00069B37
  5125 0001:00069B3C  5127 0001:00069B41  5133 0001:00069B48  5134 0001:00069B50
  5136 0001:00069B57  5137 0001:00069B5C  5140 0001:00069B61  5142 0001:00069B67
  5143 0001:00069B6F  5147 0001:00069B77  5148 0001:00069B7A  5150 0001:00069B83
  5151 0001:00069B87  5152 0001:00069B91  5156 0001:00069B9D  5157 0001:00069BB7
  5158 0001:00069BC5  5159 0001:00069BCB  5173 0001:00069BD0  5177 0001:00069BDE
  5178 0001:00069BE4  5180 0001:00069BEC  5181 0001:00069BF1  5182 0001:00069BF7
  5186 0001:00069C17  5188 0001:00069C1F  5189 0001:00069C2D  5190 0001:00069C2F
  5198 0001:00069C34  5199 0001:00069C3B  5202 0001:00069C46  5209 0001:00069C51
  5211 0001:00069C61  5213 0001:00069C6F  5216 0001:00069C85  5218 0001:00069C93
  5220 0001:00069CA1  5222 0001:00069CAF  5225 0001:00069CBD  5227 0001:00069CCB
  5229 0001:00069CDF  5231 0001:00069CED  5234 0001:00069CFB  5236 0001:00069D06
  5238 0001:00069D14  5240 0001:00069D1F  5242 0001:00069D33  5244 0001:00069D3E
  5246 0001:00069D4C  5248 0001:00069D57  5250 0001:00069D65  5252 0001:00069D70
  5257 0001:00069D81  5261 0001:00069D88  5269 0001:00069D94  5270 0001:00069DA3
  5275 0001:00069DA4  5276 0001:00069DA5  5277 0001:00069DB5  5278 0001:00069DC1
  5295 0001:00069DC8  5296 0001:00069DD2  5301 0001:00069DD4  5303 0001:00069DD6
  5304 0001:00069DDE  5306 0001:00069DE8  5307 0001:00069DED  5309 0001:00069DF8
  5310 0001:00069DFA  5311 0001:00069E05  5312 0001:00069E16  5313 0001:00069E1B
  5322 0001:00069E20  5323 0001:00069E38  5324 0001:00069E41  5325 0001:00069E45
  5326 0001:00069E48  5327 0001:00069E4D  5328 0001:00069E57  5338 0001:00069E78
  5339 0001:00069EA6  5340 0001:00069EAF  5343 0001:00069EB7  5344 0001:00069EC1
  5346 0001:00069ED6  5347 0001:00069EE1  5348 0001:00069EF0  5349 0001:00069EF4
  5350 0001:00069F39  5351 0001:00069F4A  5353 0001:00069F50  5354 0001:00069F61
  5356 0001:00069F67  5357 0001:00069F78  5359 0001:00069F7E  5360 0001:00069F8F
  5364 0001:00069F93  5366 0001:00069F99  5367 0001:00069FA6  5368 0001:00069FAA
  5372 0001:00069FB2  5373 0001:00069FBE  5374 0001:00069FC2  5378 0001:00069FC5
  5380 0001:00069FCB  5381 0001:00069FE5  5383 0001:00069FF3  5385 0001:00069FFA
  5386 0001:0006A011  5389 0001:0006A013  5390 0001:0006A025  5381 0001:0006A026
  5393 0001:0006A02B  5402 0001:0006A158  5403 0001:0006A159  5404 0001:0006A160
  5412 0001:0006A164  5413 0001:0006A170  5414 0001:0006A182  5416 0001:0006A194
  5417 0001:0006A19B  5418 0001:0006A1A3  5420 0001:0006A1BA  5421 0001:0006A1BE
  5424 0001:0006A1CA  5427 0001:0006A1F7  5428 0001:0006A1FB  5431 0001:0006A209
  5432 0001:0006A214  5433 0001:0006A21A  5435 0001:0006A21E  5422 0001:0006A222
  5438 0001:0006A22A  5440 0001:0006A22E  5418 0001:0006A22F  5443 0001:0006A237
  5444 0001:0006A23B  5446 0001:0006A245  5447 0001:0006A24C  5456 0001:0006A258
  5457 0001:0006A26D  5458 0001:0006A276  5459 0001:0006A279  5460 0001:0006A280
  5463 0001:0006A29C  5464 0001:0006A2A0  5465 0001:0006A2B4  5466 0001:0006A2BD
  5478 0001:0006A2C4  5479 0001:0006A2CD  5480 0001:0006A2D4  5481 0001:0006A2E1
  5482 0001:0006A2EF  5483 0001:0006A2F1  5486 0001:0006A2FA  5487 0001:0006A30E
  5488 0001:0006A317  5489 0001:0006A318  5484 0001:0006A31A  5492 0001:0006A32C
  5494 0001:0006A341  5505 0001:0006A348  5506 0001:0006A34B  5508 0001:0006A34F
  5509 0001:0006A358  5511 0001:0006A369  5513 0001:0006A375  5572 0001:0006A378
  5573 0001:0006A39A  5574 0001:0006A39E  5576 0001:0006A3B0  5577 0001:0006A3BC
  5578 0001:0006A3CA  5579 0001:0006A3D5  5581 0001:0006A3EC  5582 0001:0006A3F0
  5583 0001:0006A3F2  5578 0001:0006A3F3  5585 0001:0006A403  5588 0001:0006A41F
  5590 0001:0006A443  5591 0001:0006A44D  5592 0001:0006A45B  5593 0001:0006A478
  5594 0001:0006A47E  5595 0001:0006A492  5597 0001:0006A4B0  5598 0001:0006A4B4
  5599 0001:0006A4B6  5594 0001:0006A4B7  5601 0001:0006A4C7  5604 0001:0006A4D9
  5613 0001:0006A508  5614 0001:0006A516  5618 0001:0006A562  5619 0001:0006A56B
  5620 0001:0006A57C  5621 0001:0006A585  5623 0001:0006A58A  5650 0001:0006A594
  5652 0001:0006A59D  5653 0001:0006A5A7  5654 0001:0006A5AB  5658 0001:0006A5B2
  5659 0001:0006A5BB  5660 0001:0006A5C1  5662 0001:0006A5C3  6473 0001:0006A5C4
  6474 0001:0006A5C7  6475 0001:0006A5D3  6476 0001:0006A5E2  6479 0001:0006A5E6
  6484 0001:0006A5EA  6485 0001:0006A5F5  6487 0001:0006A5FA  6528 0001:0006A660
  6534 0001:0006A687  6536 0001:0006A68C  6537 0001:0006A69E  6538 0001:0006A6B0
  6539 0001:0006A6C2  6540 0001:0006A6D4  6541 0001:0006A6E6  6542 0001:0006A6F8
  6543 0001:0006A70A  6544 0001:0006A71C  6546 0001:0006A72E  6548 0001:0006A738

Line numbers for JclDebug(JCLDebug.pas) segment .itext

  6517 0002:00000B54  6518 0002:00000B5D  6519 0002:00000B6E  6520 0002:00000B7F
  6521 0002:00000B90  6523 0002:00000B9A  6526 0002:00000BA9

Line numbers for FastMM_FullDebugMode(FastMM_FullDebugMode.dpr) segment .text

    83 0001:0006A7B8    86 0001:0006A7C2    87 0001:0006A7C9    88 0001:0006A7CC
    89 0001:0006A7CF    92 0001:0006A7D2    99 0001:0006A7D7   101 0001:0006A7DB
   102 0001:0006A7E2   103 0001:0006A7E5   106 0001:0006A7E8   108 0001:0006A7E9
    94 0001:0006A7EB   111 0001:0006A7F9   113 0001:0006A7FD   114 0001:0006A801
   115 0001:0006A804   111 0001:0006A805   117 0001:0006A809   140 0001:0006A810
   142 0001:0006A819   145 0001:0006A829   150 0001:0006A83E   153 0001:0006A842
   155 0001:0006A844   156 0001:0006A84A   157 0001:0006A850   158 0001:0006A85B
   163 0001:0006A86A   165 0001:0006A874   172 0001:0006A87C   173 0001:0006A883
   176 0001:0006A88E   178 0001:0006A894   179 0001:0006A8A3   181 0001:0006A8AB
   187 0001:0006A8D4   189 0001:0006A8E2   191 0001:0006A8EB   192 0001:0006A8ED
   195 0001:0006A8FA   197 0001:0006A902   199 0001:0006A90A   201 0001:0006A912
   202 0001:0006A914   205 0001:0006A921   207 0001:0006A929   208 0001:0006A92F
   210 0001:0006A93F   211 0001:0006A941   215 0001:0006A94E   217 0001:0006A95E
   218 0001:0006A960   221 0001:0006A96D   224 0001:0006A98D   225 0001:0006A98F
   228 0001:0006A99C   230 0001:0006A9A2   231 0001:0006A9A4   234 0001:0006A9B1
   235 0001:0006A9B6   237 0001:0006A9C6   238 0001:0006A9C8   241 0001:0006A9D5
   244 0001:0006A9F5   245 0001:0006A9F7   248 0001:0006AA01   250 0001:0006AA11
   251 0001:0006AA13   254 0001:0006AA1D   256 0001:0006AA29   257 0001:0006AA2B
   260 0001:0006AA35   263 0001:0006AA46   265 0001:0006AA4E   269 0001:0006AA57
   272 0001:0006AA5B   273 0001:0006AA5D   282 0001:0006AA68   285 0001:0006AA7A
   288 0001:0006AA88   291 0001:0006AA90   292 0001:0006AA97   293 0001:0006AA9A
   294 0001:0006AA9D   297 0001:0006AAA0   303 0001:0006AAAB   305 0001:0006AAB0
   310 0001:0006AABA   312 0001:0006AAC2   317 0001:0006AACA   318 0001:0006AADB
   320 0001:0006AAE5   323 0001:0006AAF0   325 0001:0006AAF6   326 0001:0006AAFB
   327 0001:0006AAFF   334 0001:0006AB04   340 0001:0006AB09   346 0001:0006AB0E
   349 0001:0006AB11   351 0001:0006AB17   356 0001:0006AB1C   361 0001:0006AB24
   363 0001:0006AB26   365 0001:0006AB31   366 0001:0006AB36   367 0001:0006AB3A
   370 0001:0006AB3D   357 0001:0006AB40   374 0001:0006AB4A   299 0001:0006AB4D
   377 0001:0006AB5F   379 0001:0006AB65   380 0001:0006AB6C   381 0001:0006AB70
   377 0001:0006AB73   385 0001:0006AB79   390 0001:0006AB84   392 0001:0006AB92
   406 0001:0006AB9C   407 0001:0006AB9D   409 0001:0006AB9E   411 0001:0006ABA0
   413 0001:0006ABA2   415 0001:0006ABA4   416 0001:0006ABAA   418 0001:0006ABB0
   419 0001:0006ABB3   421 0001:0006ABB6   422 0001:0006ABB9   423 0001:0006ABBB
   424 0001:0006ABC1   425 0001:0006ABC3   426 0001:0006ABC6   428 0001:0006ABC9
   429 0001:0006ABCC   430 0001:0006ABCE   431 0001:0006ABD4   432 0001:0006ABD6
   433 0001:0006ABD9   435 0001:0006ABDC   436 0001:0006ABDF   437 0001:0006ABE1
   438 0001:0006ABE7   439 0001:0006ABE9   440 0001:0006ABEC   442 0001:0006ABEF
   443 0001:0006ABF2   444 0001:0006ABF4   445 0001:0006ABFA   446 0001:0006ABFC
   447 0001:0006ABFF   449 0001:0006AC02   450 0001:0006AC05   452 0001:0006AC08
   453 0001:0006AC0B   454 0001:0006AC0D   455 0001:0006AC13   456 0001:0006AC15
   457 0001:0006AC18   459 0001:0006AC1B   460 0001:0006AC1E   461 0001:0006AC20
   462 0001:0006AC26   463 0001:0006AC28   464 0001:0006AC2B   466 0001:0006AC2E
   467 0001:0006AC31   468 0001:0006AC33   469 0001:0006AC39   470 0001:0006AC3B
   471 0001:0006AC3E   473 0001:0006AC41   474 0001:0006AC44   475 0001:0006AC4A
   477 0001:0006AC4C   479 0001:0006AC4F   480 0001:0006AC50   481 0001:0006AC51
   485 0001:0006AC54   486 0001:0006AC73   487 0001:0006AC77   488 0001:0006ACA7
   497 0001:0006ACE8   499 0001:0006AD1E   501 0001:0006AD2B   502 0001:0006AD30
   504 0001:0006AD38   505 0001:0006AD3B   506 0001:0006AD3C   507 0001:0006AD3F
   508 0001:0006AD40   511 0001:0006AD4B   513 0001:0006AD63   514 0001:0006AD70
   515 0001:0006AD7B   516 0001:0006AD86   517 0001:0006AD91   518 0001:0006AD98
   520 0001:0006ADAD   521 0001:0006ADDA   523 0001:0006AE04   524 0001:0006AE09
   525 0001:0006AE2C   527 0001:0006AE2E   499 0001:0006AE32   529 0001:0006AE3B

Line numbers for FastMM_FullDebugMode(FastMM_FullDebugMode.dpr) segment .itext

   584 0002:00000BAC   586 0002:00000BBC   588 0002:00000BD4

Bound resource files

c:\program files (x86)\embarcadero\rad studio\7.0\lib\Character.res
..\..\jcl-2.3.1.4197\jcl-2.3.1.4197\source\common\JclUnicode.res
FastMM_FullDebugMode.res
FastMM_FullDebugMode.drf


Program entry point at 0002:00000BAC
